	.text
	.file	"speedtest.cpp"
	.section	.text.startup,"ax",@progbits
	.p2align	4, 0x90         # -- Begin function __cxx_global_var_init
	.type	__cxx_global_var_init,@function
__cxx_global_var_init:                  # @__cxx_global_var_init
	.cfi_startproc
# %bb.0:                                # %entry
	pushq	%rbp
	.cfi_def_cfa_offset 16
	.cfi_offset %rbp, -16
	movq	%rsp, %rbp
	.cfi_def_cfa_register %rbp
	subq	$16, %rsp
	movabsq	$_ZStL8__ioinit, %rdi
	callq	_ZNSt8ios_base4InitC1Ev
	movabsq	$_ZNSt8ios_base4InitD1Ev, %rdi
	movabsq	$_ZStL8__ioinit, %rsi
	movabsq	$__dso_handle, %rdx
	callq	__cxa_atexit
	movl	%eax, -4(%rbp)          # 4-byte Spill
	addq	$16, %rsp
	popq	%rbp
	.cfi_def_cfa %rsp, 8
	retq
.Lfunc_end0:
	.size	__cxx_global_var_init, .Lfunc_end0-__cxx_global_var_init
	.cfi_endproc
                                        # -- End function
	.text
	.globl	main                    # -- Begin function main
	.p2align	4, 0x90
	.type	main,@function
main:                                   # @main
.Lfunc_begin0:
	.cfi_startproc
	.cfi_personality 3, __gxx_personality_v0
	.cfi_lsda 3, .Lexception0
# %bb.0:                                # %entry
	pushq	%rbp
	.cfi_def_cfa_offset 16
	.cfi_offset %rbp, -16
	movq	%rsp, %rbp
	.cfi_def_cfa_register %rbp
	subq	$2336, %rsp             # imm = 0x920
	movl	$512, -48(%rbp)         # imm = 0x200
	movl	$512, -44(%rbp)         # imm = 0x200
	leaq	-48(%rbp), %rax
	movq	%rax, -40(%rbp)
	movq	$2, -32(%rbp)
	leaq	-56(%rbp), %rax
	movq	%rax, %rdi
	movq	%rax, -1808(%rbp)       # 8-byte Spill
	callq	_ZNSaIiEC2Ev
	movq	-40(%rbp), %rsi
	movq	-32(%rbp), %rdx
.Ltmp0:
	leaq	-24(%rbp), %rdi
	movq	-1808(%rbp), %rcx       # 8-byte Reload
	callq	_ZNSt6vectorIiSaIiEEC2ESt16initializer_listIiERKS0_
.Ltmp1:
	jmp	.LBB1_1
.LBB1_1:                                # %invoke.cont
	leaq	-56(%rbp), %rdi
	callq	_ZNSaIiED2Ev
	movl	$512, -176(%rbp)        # imm = 0x200
	movl	$512, -172(%rbp)        # imm = 0x200
	leaq	-176(%rbp), %rdi
	movq	%rdi, -168(%rbp)
	movq	$2, -160(%rbp)
	movq	-168(%rbp), %rsi
	movq	-160(%rbp), %rdx
.Ltmp3:
	leaq	-152(%rbp), %rdi
	movl	$24, %ecx
	callq	_Z18make_random_tensorIfE6TensorIT_ESt16initializer_listIiEj
.Ltmp4:
	jmp	.LBB1_2
.LBB1_2:                                # %invoke.cont10
	movl	$512, -280(%rbp)        # imm = 0x200
	movl	$512, -276(%rbp)        # imm = 0x200
	leaq	-280(%rbp), %rax
	movq	%rax, -272(%rbp)
	movq	$2, -264(%rbp)
	movq	-272(%rbp), %rsi
	movq	-264(%rbp), %rdx
.Ltmp6:
	leaq	-256(%rbp), %rdi
	movl	$24, %ecx
	callq	_Z18make_random_tensorIfE6TensorIT_ESt16initializer_listIiEj
.Ltmp7:
	jmp	.LBB1_3
.LBB1_3:                                # %invoke.cont19
.Ltmp9:
	leaq	-360(%rbp), %rdi
	leaq	-24(%rbp), %rsi
	callq	_ZN6TensorIfEC2ERKSt6vectorIiSaIiEE
.Ltmp10:
	jmp	.LBB1_4
.LBB1_4:                                # %invoke.cont21
.Ltmp12:
	leaq	-392(%rbp), %rdi
	leaq	-152(%rbp), %rsi
	callq	_ZN6TensorIfE8as_tspanILi2EEE5TSpanIXT_EfEv
.Ltmp13:
	jmp	.LBB1_5
.LBB1_5:                                # %invoke.cont23
.Ltmp15:
	leaq	-424(%rbp), %rdi
	leaq	-256(%rbp), %rsi
	callq	_ZN6TensorIfE8as_tspanILi2EEE5TSpanIXT_EfEv
.Ltmp16:
	jmp	.LBB1_6
.LBB1_6:                                # %invoke.cont25
.Ltmp18:
	leaq	-456(%rbp), %rdi
	leaq	-360(%rbp), %rsi
	callq	_ZN6TensorIfE8as_tspanILi2EEE5TSpanIXT_EfEv
.Ltmp19:
	jmp	.LBB1_7
.LBB1_7:                                # %invoke.cont27
.Ltmp21:
	movl	$_ZSt4cout, %eax
	movl	%eax, %edi
	movl	$.L.str, %eax
	movl	%eax, %esi
	callq	_ZStlsISt11char_traitsIcEERSt13basic_ostreamIcT_ES5_PKc
.Ltmp22:
	movq	%rax, -1816(%rbp)       # 8-byte Spill
	jmp	.LBB1_8
.LBB1_8:                                # %invoke.cont29
	leaq	-552(%rbp), %rax
.Ltmp23:
	leaq	-392(%rbp), %rsi
	movq	%rax, %rdi
	movq	%rax, -1824(%rbp)       # 8-byte Spill
	callq	_ZN5TSpanILi2EfEC2ERKS0_
.Ltmp24:
	jmp	.LBB1_9
.LBB1_9:                                # %invoke.cont31
	leaq	-520(%rbp), %rax
.Ltmp25:
	leaq	-424(%rbp), %rsi
	movq	%rax, %rdi
	movq	%rax, -1832(%rbp)       # 8-byte Spill
	callq	_ZN5TSpanILi2EfEC2ERKS0_
.Ltmp26:
	jmp	.LBB1_10
.LBB1_10:                               # %invoke.cont33
	leaq	-488(%rbp), %rdi
.Ltmp28:
	leaq	-456(%rbp), %rsi
	callq	_ZN5TSpanILi2EfEC2ERKS0_
.Ltmp29:
	jmp	.LBB1_11
.LBB1_11:                               # %invoke.cont35
.Ltmp31:
	movl	$100, %edi
	leaq	-552(%rbp), %rsi
	callq	_Z7time_fnIZ4mainE3$_0JEEviT_DpT0_
.Ltmp32:
	jmp	.LBB1_12
.LBB1_12:                               # %invoke.cont37
	leaq	-552(%rbp), %rdi
	callq	_ZZ4mainEN3$_0D2Ev
.Ltmp34:
	leaq	-632(%rbp), %rdi
	leaq	-24(%rbp), %rsi
	callq	_ZN6TensorIfEC2ERKSt6vectorIiSaIiEE
.Ltmp35:
	jmp	.LBB1_13
.LBB1_13:                               # %invoke.cont39
.Ltmp37:
	leaq	-664(%rbp), %rdi
	leaq	-632(%rbp), %rsi
	callq	_ZN6TensorIfE8as_tspanILi2EEE5TSpanIXT_EfEv
.Ltmp38:
	jmp	.LBB1_14
.LBB1_14:                               # %invoke.cont41
.Ltmp40:
	movl	$_ZSt4cout, %eax
	movl	%eax, %edi
	movl	$.L.str.1, %eax
	movl	%eax, %esi
	callq	_ZStlsISt11char_traitsIcEERSt13basic_ostreamIcT_ES5_PKc
.Ltmp41:
	movq	%rax, -1840(%rbp)       # 8-byte Spill
	jmp	.LBB1_15
.LBB1_15:                               # %invoke.cont43
	leaq	-760(%rbp), %rax
.Ltmp42:
	leaq	-392(%rbp), %rsi
	movq	%rax, %rdi
	movq	%rax, -1848(%rbp)       # 8-byte Spill
	callq	_ZN5TSpanILi2EfEC2ERKS0_
.Ltmp43:
	jmp	.LBB1_16
.LBB1_16:                               # %invoke.cont46
	leaq	-728(%rbp), %rax
.Ltmp44:
	leaq	-424(%rbp), %rsi
	movq	%rax, %rdi
	movq	%rax, -1856(%rbp)       # 8-byte Spill
	callq	_ZN5TSpanILi2EfEC2ERKS0_
.Ltmp45:
	jmp	.LBB1_17
.LBB1_17:                               # %invoke.cont48
	leaq	-696(%rbp), %rdi
.Ltmp47:
	leaq	-664(%rbp), %rsi
	callq	_ZN5TSpanILi2EfEC2ERKS0_
.Ltmp48:
	jmp	.LBB1_18
.LBB1_18:                               # %invoke.cont50
.Ltmp50:
	movl	$100, %edi
	leaq	-760(%rbp), %rsi
	callq	_Z7time_fnIZ4mainE3$_1JEEviT_DpT0_
.Ltmp51:
	jmp	.LBB1_19
.LBB1_19:                               # %invoke.cont54
	leaq	-760(%rbp), %rdi
	callq	_ZZ4mainEN3$_1D2Ev
.Ltmp53:
	movl	$_ZSt4cout, %eax
	movl	%eax, %edi
	movl	$.L.str.2, %eax
	movl	%eax, %esi
	callq	_ZStlsISt11char_traitsIcEERSt13basic_ostreamIcT_ES5_PKc
.Ltmp54:
	movq	%rax, -1864(%rbp)       # 8-byte Spill
	jmp	.LBB1_20
.LBB1_20:                               # %invoke.cont56
.Ltmp55:
	leaq	-664(%rbp), %rdi
	leaq	-456(%rbp), %rsi
	callq	_ZNK5TSpanILi2EfEeqERKS0_
.Ltmp56:
	movb	%al, -1865(%rbp)        # 1-byte Spill
	jmp	.LBB1_21
.LBB1_21:                               # %invoke.cont58
.Ltmp57:
	movb	-1865(%rbp), %al        # 1-byte Reload
	movzbl	%al, %ecx
	andl	$1, %ecx
	movq	-1864(%rbp), %rdi       # 8-byte Reload
	movl	%ecx, %esi
	callq	_ZNSolsEb
.Ltmp58:
	movq	%rax, -1880(%rbp)       # 8-byte Spill
	jmp	.LBB1_22
.LBB1_22:                               # %invoke.cont60
.Ltmp59:
	movl	$_ZSt4endlIcSt11char_traitsIcEERSt13basic_ostreamIT_T0_ES6_, %eax
	movl	%eax, %esi
	movq	-1880(%rbp), %rdi       # 8-byte Reload
	callq	_ZNSolsEPFRSoS_E
.Ltmp60:
	movq	%rax, -1888(%rbp)       # 8-byte Spill
	jmp	.LBB1_23
.LBB1_23:                               # %invoke.cont62
.Ltmp61:
	leaq	-840(%rbp), %rdi
	leaq	-24(%rbp), %rsi
	callq	_ZN6TensorIfEC2ERKSt6vectorIiSaIiEE
.Ltmp62:
	jmp	.LBB1_24
.LBB1_24:                               # %invoke.cont65
	leaq	-632(%rbp), %rax
	leaq	-840(%rbp), %rcx
	movq	%rax, %rdi
	movq	%rcx, %rsi
	movq	%rax, -1896(%rbp)       # 8-byte Spill
	movq	%rcx, -1904(%rbp)       # 8-byte Spill
	callq	_ZN6TensorIfEaSEOS0_
	movq	-1904(%rbp), %rdi       # 8-byte Reload
	movq	%rax, -1912(%rbp)       # 8-byte Spill
	callq	_ZN6TensorIfED2Ev
.Ltmp63:
	leaq	-872(%rbp), %rdi
	movq	-1896(%rbp), %rsi       # 8-byte Reload
	callq	_ZN6TensorIfE8as_tspanILi2EEE5TSpanIXT_EfEv
.Ltmp64:
	jmp	.LBB1_25
.LBB1_25:                               # %invoke.cont68
.Ltmp65:
	leaq	-664(%rbp), %rdi
	leaq	-872(%rbp), %rsi
	callq	_ZN5TSpanILi2EfEaSEOS0_
.Ltmp66:
	movq	%rax, -1920(%rbp)       # 8-byte Spill
	jmp	.LBB1_26
.LBB1_26:                               # %invoke.cont70
	leaq	-872(%rbp), %rdi
	callq	_ZN5TSpanILi2EfED2Ev
.Ltmp68:
	movl	$_ZSt4cout, %eax
	movl	%eax, %edi
	movl	$.L.str.3, %eax
	movl	%eax, %esi
	callq	_ZStlsISt11char_traitsIcEERSt13basic_ostreamIcT_ES5_PKc
.Ltmp69:
	movq	%rax, -1928(%rbp)       # 8-byte Spill
	jmp	.LBB1_27
.LBB1_27:                               # %invoke.cont73
	leaq	-968(%rbp), %rax
.Ltmp70:
	leaq	-392(%rbp), %rsi
	movq	%rax, %rdi
	movq	%rax, -1936(%rbp)       # 8-byte Spill
	callq	_ZN5TSpanILi2EfEC2ERKS0_
.Ltmp71:
	jmp	.LBB1_28
.LBB1_28:                               # %invoke.cont76
	leaq	-936(%rbp), %rax
.Ltmp72:
	leaq	-424(%rbp), %rsi
	movq	%rax, %rdi
	movq	%rax, -1944(%rbp)       # 8-byte Spill
	callq	_ZN5TSpanILi2EfEC2ERKS0_
.Ltmp73:
	jmp	.LBB1_29
.LBB1_29:                               # %invoke.cont78
	leaq	-904(%rbp), %rdi
.Ltmp75:
	leaq	-664(%rbp), %rsi
	callq	_ZN5TSpanILi2EfEC2ERKS0_
.Ltmp76:
	jmp	.LBB1_30
.LBB1_30:                               # %invoke.cont80
.Ltmp78:
	movl	$100, %edi
	leaq	-968(%rbp), %rsi
	callq	_Z7time_fnIZ4mainE3$_2JEEviT_DpT0_
.Ltmp79:
	jmp	.LBB1_31
.LBB1_31:                               # %invoke.cont84
	leaq	-968(%rbp), %rdi
	callq	_ZZ4mainEN3$_2D2Ev
.Ltmp81:
	movl	$_ZSt4cout, %eax
	movl	%eax, %edi
	movl	$.L.str.2, %eax
	movl	%eax, %esi
	callq	_ZStlsISt11char_traitsIcEERSt13basic_ostreamIcT_ES5_PKc
.Ltmp82:
	movq	%rax, -1952(%rbp)       # 8-byte Spill
	jmp	.LBB1_32
.LBB1_32:                               # %invoke.cont86
.Ltmp83:
	leaq	-664(%rbp), %rdi
	leaq	-456(%rbp), %rsi
	callq	_ZNK5TSpanILi2EfEeqERKS0_
.Ltmp84:
	movb	%al, -1953(%rbp)        # 1-byte Spill
	jmp	.LBB1_33
.LBB1_33:                               # %invoke.cont88
.Ltmp85:
	movb	-1953(%rbp), %al        # 1-byte Reload
	movzbl	%al, %ecx
	andl	$1, %ecx
	movq	-1952(%rbp), %rdi       # 8-byte Reload
	movl	%ecx, %esi
	callq	_ZNSolsEb
.Ltmp86:
	movq	%rax, -1968(%rbp)       # 8-byte Spill
	jmp	.LBB1_34
.LBB1_34:                               # %invoke.cont90
.Ltmp87:
	movl	$_ZSt4endlIcSt11char_traitsIcEERSt13basic_ostreamIT_T0_ES6_, %eax
	movl	%eax, %esi
	movq	-1968(%rbp), %rdi       # 8-byte Reload
	callq	_ZNSolsEPFRSoS_E
.Ltmp88:
	movq	%rax, -1976(%rbp)       # 8-byte Spill
	jmp	.LBB1_35
.LBB1_35:                               # %invoke.cont92
.Ltmp89:
	leaq	-1048(%rbp), %rdi
	leaq	-24(%rbp), %rsi
	callq	_ZN6TensorIfEC2ERKSt6vectorIiSaIiEE
.Ltmp90:
	jmp	.LBB1_36
.LBB1_36:                               # %invoke.cont95
	leaq	-632(%rbp), %rax
	leaq	-1048(%rbp), %rcx
	movq	%rax, %rdi
	movq	%rcx, %rsi
	movq	%rax, -1984(%rbp)       # 8-byte Spill
	movq	%rcx, -1992(%rbp)       # 8-byte Spill
	callq	_ZN6TensorIfEaSEOS0_
	movq	-1992(%rbp), %rdi       # 8-byte Reload
	movq	%rax, -2000(%rbp)       # 8-byte Spill
	callq	_ZN6TensorIfED2Ev
.Ltmp91:
	leaq	-1080(%rbp), %rdi
	movq	-1984(%rbp), %rsi       # 8-byte Reload
	callq	_ZN6TensorIfE8as_tspanILi2EEE5TSpanIXT_EfEv
.Ltmp92:
	jmp	.LBB1_37
.LBB1_37:                               # %invoke.cont98
.Ltmp93:
	leaq	-664(%rbp), %rdi
	leaq	-1080(%rbp), %rsi
	callq	_ZN5TSpanILi2EfEaSEOS0_
.Ltmp94:
	movq	%rax, -2008(%rbp)       # 8-byte Spill
	jmp	.LBB1_38
.LBB1_38:                               # %invoke.cont100
	leaq	-1080(%rbp), %rdi
	callq	_ZN5TSpanILi2EfED2Ev
.Ltmp96:
	movl	$_ZSt4cout, %eax
	movl	%eax, %edi
	movl	$.L.str.4, %eax
	movl	%eax, %esi
	callq	_ZStlsISt11char_traitsIcEERSt13basic_ostreamIcT_ES5_PKc
.Ltmp97:
	movq	%rax, -2016(%rbp)       # 8-byte Spill
	jmp	.LBB1_39
.LBB1_39:                               # %invoke.cont103
	leaq	-1176(%rbp), %rax
.Ltmp98:
	leaq	-392(%rbp), %rsi
	movq	%rax, %rdi
	movq	%rax, -2024(%rbp)       # 8-byte Spill
	callq	_ZN5TSpanILi2EfEC2ERKS0_
.Ltmp99:
	jmp	.LBB1_40
.LBB1_40:                               # %invoke.cont106
	leaq	-1144(%rbp), %rax
.Ltmp100:
	leaq	-424(%rbp), %rsi
	movq	%rax, %rdi
	movq	%rax, -2032(%rbp)       # 8-byte Spill
	callq	_ZN5TSpanILi2EfEC2ERKS0_
.Ltmp101:
	jmp	.LBB1_41
.LBB1_41:                               # %invoke.cont108
	leaq	-1112(%rbp), %rdi
.Ltmp103:
	leaq	-664(%rbp), %rsi
	callq	_ZN5TSpanILi2EfEC2ERKS0_
.Ltmp104:
	jmp	.LBB1_42
.LBB1_42:                               # %invoke.cont110
.Ltmp106:
	movl	$100, %edi
	leaq	-1176(%rbp), %rsi
	callq	_Z7time_fnIZ4mainE3$_3JEEviT_DpT0_
.Ltmp107:
	jmp	.LBB1_43
.LBB1_43:                               # %invoke.cont114
	leaq	-1176(%rbp), %rdi
	callq	_ZZ4mainEN3$_3D2Ev
.Ltmp109:
	movl	$_ZSt4cout, %eax
	movl	%eax, %edi
	movl	$.L.str.2, %eax
	movl	%eax, %esi
	callq	_ZStlsISt11char_traitsIcEERSt13basic_ostreamIcT_ES5_PKc
.Ltmp110:
	movq	%rax, -2040(%rbp)       # 8-byte Spill
	jmp	.LBB1_44
.LBB1_44:                               # %invoke.cont116
.Ltmp111:
	leaq	-664(%rbp), %rdi
	leaq	-456(%rbp), %rsi
	callq	_ZNK5TSpanILi2EfEeqERKS0_
.Ltmp112:
	movb	%al, -2041(%rbp)        # 1-byte Spill
	jmp	.LBB1_45
.LBB1_45:                               # %invoke.cont118
.Ltmp113:
	movb	-2041(%rbp), %al        # 1-byte Reload
	movzbl	%al, %ecx
	andl	$1, %ecx
	movq	-2040(%rbp), %rdi       # 8-byte Reload
	movl	%ecx, %esi
	callq	_ZNSolsEb
.Ltmp114:
	movq	%rax, -2056(%rbp)       # 8-byte Spill
	jmp	.LBB1_46
.LBB1_46:                               # %invoke.cont120
.Ltmp115:
	movl	$_ZSt4endlIcSt11char_traitsIcEERSt13basic_ostreamIT_T0_ES6_, %eax
	movl	%eax, %esi
	movq	-2056(%rbp), %rdi       # 8-byte Reload
	callq	_ZNSolsEPFRSoS_E
.Ltmp116:
	movq	%rax, -2064(%rbp)       # 8-byte Spill
	jmp	.LBB1_47
.LBB1_47:                               # %invoke.cont122
.Ltmp117:
	leaq	-1256(%rbp), %rdi
	leaq	-24(%rbp), %rsi
	callq	_ZN6TensorIfEC2ERKSt6vectorIiSaIiEE
.Ltmp118:
	jmp	.LBB1_48
.LBB1_48:                               # %invoke.cont125
	leaq	-632(%rbp), %rax
	leaq	-1256(%rbp), %rcx
	movq	%rax, %rdi
	movq	%rcx, %rsi
	movq	%rax, -2072(%rbp)       # 8-byte Spill
	movq	%rcx, -2080(%rbp)       # 8-byte Spill
	callq	_ZN6TensorIfEaSEOS0_
	movq	-2080(%rbp), %rdi       # 8-byte Reload
	movq	%rax, -2088(%rbp)       # 8-byte Spill
	callq	_ZN6TensorIfED2Ev
.Ltmp119:
	leaq	-1288(%rbp), %rdi
	movq	-2072(%rbp), %rsi       # 8-byte Reload
	callq	_ZN6TensorIfE8as_tspanILi2EEE5TSpanIXT_EfEv
.Ltmp120:
	jmp	.LBB1_49
.LBB1_49:                               # %invoke.cont128
.Ltmp121:
	leaq	-664(%rbp), %rdi
	leaq	-1288(%rbp), %rsi
	callq	_ZN5TSpanILi2EfEaSEOS0_
.Ltmp122:
	movq	%rax, -2096(%rbp)       # 8-byte Spill
	jmp	.LBB1_50
.LBB1_50:                               # %invoke.cont130
	leaq	-1288(%rbp), %rdi
	callq	_ZN5TSpanILi2EfED2Ev
.Ltmp124:
	movl	$_ZSt4cout, %eax
	movl	%eax, %edi
	movl	$.L.str.5, %eax
	movl	%eax, %esi
	callq	_ZStlsISt11char_traitsIcEERSt13basic_ostreamIcT_ES5_PKc
.Ltmp125:
	movq	%rax, -2104(%rbp)       # 8-byte Spill
	jmp	.LBB1_51
.LBB1_51:                               # %invoke.cont133
	leaq	-1384(%rbp), %rax
.Ltmp126:
	leaq	-392(%rbp), %rsi
	movq	%rax, %rdi
	movq	%rax, -2112(%rbp)       # 8-byte Spill
	callq	_ZN5TSpanILi2EfEC2ERKS0_
.Ltmp127:
	jmp	.LBB1_52
.LBB1_52:                               # %invoke.cont136
	leaq	-1352(%rbp), %rax
.Ltmp128:
	leaq	-424(%rbp), %rsi
	movq	%rax, %rdi
	movq	%rax, -2120(%rbp)       # 8-byte Spill
	callq	_ZN5TSpanILi2EfEC2ERKS0_
.Ltmp129:
	jmp	.LBB1_53
.LBB1_53:                               # %invoke.cont138
	leaq	-1320(%rbp), %rdi
.Ltmp131:
	leaq	-664(%rbp), %rsi
	callq	_ZN5TSpanILi2EfEC2ERKS0_
.Ltmp132:
	jmp	.LBB1_54
.LBB1_54:                               # %invoke.cont140
.Ltmp134:
	movl	$100, %edi
	leaq	-1384(%rbp), %rsi
	callq	_Z7time_fnIZ4mainE3$_4JEEviT_DpT0_
.Ltmp135:
	jmp	.LBB1_55
.LBB1_55:                               # %invoke.cont144
	leaq	-1384(%rbp), %rdi
	callq	_ZZ4mainEN3$_4D2Ev
.Ltmp137:
	movl	$_ZSt4cout, %eax
	movl	%eax, %edi
	movl	$.L.str.2, %eax
	movl	%eax, %esi
	callq	_ZStlsISt11char_traitsIcEERSt13basic_ostreamIcT_ES5_PKc
.Ltmp138:
	movq	%rax, -2128(%rbp)       # 8-byte Spill
	jmp	.LBB1_56
.LBB1_56:                               # %invoke.cont146
.Ltmp139:
	leaq	-664(%rbp), %rdi
	leaq	-456(%rbp), %rsi
	callq	_ZNK5TSpanILi2EfEeqERKS0_
.Ltmp140:
	movb	%al, -2129(%rbp)        # 1-byte Spill
	jmp	.LBB1_57
.LBB1_57:                               # %invoke.cont148
.Ltmp141:
	movb	-2129(%rbp), %al        # 1-byte Reload
	movzbl	%al, %ecx
	andl	$1, %ecx
	movq	-2128(%rbp), %rdi       # 8-byte Reload
	movl	%ecx, %esi
	callq	_ZNSolsEb
.Ltmp142:
	movq	%rax, -2144(%rbp)       # 8-byte Spill
	jmp	.LBB1_58
.LBB1_58:                               # %invoke.cont150
.Ltmp143:
	movl	$_ZSt4endlIcSt11char_traitsIcEERSt13basic_ostreamIT_T0_ES6_, %eax
	movl	%eax, %esi
	movq	-2144(%rbp), %rdi       # 8-byte Reload
	callq	_ZNSolsEPFRSoS_E
.Ltmp144:
	movq	%rax, -2152(%rbp)       # 8-byte Spill
	jmp	.LBB1_59
.LBB1_59:                               # %invoke.cont152
.Ltmp145:
	leaq	-1464(%rbp), %rdi
	leaq	-24(%rbp), %rsi
	callq	_ZN6TensorIfEC2ERKSt6vectorIiSaIiEE
.Ltmp146:
	jmp	.LBB1_60
.LBB1_60:                               # %invoke.cont155
	leaq	-632(%rbp), %rax
	leaq	-1464(%rbp), %rcx
	movq	%rax, %rdi
	movq	%rcx, %rsi
	movq	%rax, -2160(%rbp)       # 8-byte Spill
	movq	%rcx, -2168(%rbp)       # 8-byte Spill
	callq	_ZN6TensorIfEaSEOS0_
	movq	-2168(%rbp), %rdi       # 8-byte Reload
	movq	%rax, -2176(%rbp)       # 8-byte Spill
	callq	_ZN6TensorIfED2Ev
.Ltmp147:
	leaq	-1496(%rbp), %rdi
	movq	-2160(%rbp), %rsi       # 8-byte Reload
	callq	_ZN6TensorIfE8as_tspanILi2EEE5TSpanIXT_EfEv
.Ltmp148:
	jmp	.LBB1_61
.LBB1_61:                               # %invoke.cont158
.Ltmp149:
	leaq	-664(%rbp), %rdi
	leaq	-1496(%rbp), %rsi
	callq	_ZN5TSpanILi2EfEaSEOS0_
.Ltmp150:
	movq	%rax, -2184(%rbp)       # 8-byte Spill
	jmp	.LBB1_62
.LBB1_62:                               # %invoke.cont160
	leaq	-1496(%rbp), %rdi
	callq	_ZN5TSpanILi2EfED2Ev
.Ltmp152:
	movl	$_ZSt4cout, %eax
	movl	%eax, %edi
	movl	$.L.str.6, %eax
	movl	%eax, %esi
	callq	_ZStlsISt11char_traitsIcEERSt13basic_ostreamIcT_ES5_PKc
.Ltmp153:
	movq	%rax, -2192(%rbp)       # 8-byte Spill
	jmp	.LBB1_63
.LBB1_63:                               # %invoke.cont163
	leaq	-1592(%rbp), %rax
.Ltmp154:
	leaq	-392(%rbp), %rsi
	movq	%rax, %rdi
	movq	%rax, -2200(%rbp)       # 8-byte Spill
	callq	_ZN5TSpanILi2EfEC2ERKS0_
.Ltmp155:
	jmp	.LBB1_64
.LBB1_64:                               # %invoke.cont166
	leaq	-1560(%rbp), %rax
.Ltmp156:
	leaq	-424(%rbp), %rsi
	movq	%rax, %rdi
	movq	%rax, -2208(%rbp)       # 8-byte Spill
	callq	_ZN5TSpanILi2EfEC2ERKS0_
.Ltmp157:
	jmp	.LBB1_65
.LBB1_65:                               # %invoke.cont168
	leaq	-1528(%rbp), %rdi
.Ltmp159:
	leaq	-664(%rbp), %rsi
	callq	_ZN5TSpanILi2EfEC2ERKS0_
.Ltmp160:
	jmp	.LBB1_66
.LBB1_66:                               # %invoke.cont170
.Ltmp162:
	movl	$100, %edi
	leaq	-1592(%rbp), %rsi
	callq	_Z7time_fnIZ4mainE3$_5JEEviT_DpT0_
.Ltmp163:
	jmp	.LBB1_67
.LBB1_67:                               # %invoke.cont174
	leaq	-1592(%rbp), %rdi
	callq	_ZZ4mainEN3$_5D2Ev
.Ltmp165:
	movl	$_ZSt4cout, %eax
	movl	%eax, %edi
	movl	$.L.str.2, %eax
	movl	%eax, %esi
	callq	_ZStlsISt11char_traitsIcEERSt13basic_ostreamIcT_ES5_PKc
.Ltmp166:
	movq	%rax, -2216(%rbp)       # 8-byte Spill
	jmp	.LBB1_68
.LBB1_68:                               # %invoke.cont176
.Ltmp167:
	leaq	-664(%rbp), %rdi
	leaq	-456(%rbp), %rsi
	callq	_ZNK5TSpanILi2EfEeqERKS0_
.Ltmp168:
	movb	%al, -2217(%rbp)        # 1-byte Spill
	jmp	.LBB1_69
.LBB1_69:                               # %invoke.cont178
.Ltmp169:
	movb	-2217(%rbp), %al        # 1-byte Reload
	movzbl	%al, %ecx
	andl	$1, %ecx
	movq	-2216(%rbp), %rdi       # 8-byte Reload
	movl	%ecx, %esi
	callq	_ZNSolsEb
.Ltmp170:
	movq	%rax, -2232(%rbp)       # 8-byte Spill
	jmp	.LBB1_70
.LBB1_70:                               # %invoke.cont180
.Ltmp171:
	movl	$_ZSt4endlIcSt11char_traitsIcEERSt13basic_ostreamIT_T0_ES6_, %eax
	movl	%eax, %esi
	movq	-2232(%rbp), %rdi       # 8-byte Reload
	callq	_ZNSolsEPFRSoS_E
.Ltmp172:
	movq	%rax, -2240(%rbp)       # 8-byte Spill
	jmp	.LBB1_71
.LBB1_71:                               # %invoke.cont182
.Ltmp173:
	leaq	-1672(%rbp), %rdi
	leaq	-24(%rbp), %rsi
	callq	_ZN6TensorIfEC2ERKSt6vectorIiSaIiEE
.Ltmp174:
	jmp	.LBB1_72
.LBB1_72:                               # %invoke.cont185
	leaq	-632(%rbp), %rax
	leaq	-1672(%rbp), %rcx
	movq	%rax, %rdi
	movq	%rcx, %rsi
	movq	%rax, -2248(%rbp)       # 8-byte Spill
	movq	%rcx, -2256(%rbp)       # 8-byte Spill
	callq	_ZN6TensorIfEaSEOS0_
	movq	-2256(%rbp), %rdi       # 8-byte Reload
	movq	%rax, -2264(%rbp)       # 8-byte Spill
	callq	_ZN6TensorIfED2Ev
.Ltmp175:
	leaq	-1704(%rbp), %rdi
	movq	-2248(%rbp), %rsi       # 8-byte Reload
	callq	_ZN6TensorIfE8as_tspanILi2EEE5TSpanIXT_EfEv
.Ltmp176:
	jmp	.LBB1_73
.LBB1_73:                               # %invoke.cont188
.Ltmp177:
	leaq	-664(%rbp), %rdi
	leaq	-1704(%rbp), %rsi
	callq	_ZN5TSpanILi2EfEaSEOS0_
.Ltmp178:
	movq	%rax, -2272(%rbp)       # 8-byte Spill
	jmp	.LBB1_74
.LBB1_74:                               # %invoke.cont190
	leaq	-1704(%rbp), %rdi
	callq	_ZN5TSpanILi2EfED2Ev
.Ltmp180:
	movl	$_ZSt4cout, %eax
	movl	%eax, %edi
	movl	$.L.str.7, %eax
	movl	%eax, %esi
	callq	_ZStlsISt11char_traitsIcEERSt13basic_ostreamIcT_ES5_PKc
.Ltmp181:
	movq	%rax, -2280(%rbp)       # 8-byte Spill
	jmp	.LBB1_75
.LBB1_75:                               # %invoke.cont193
	leaq	-1800(%rbp), %rax
.Ltmp182:
	leaq	-392(%rbp), %rsi
	movq	%rax, %rdi
	movq	%rax, -2288(%rbp)       # 8-byte Spill
	callq	_ZN5TSpanILi2EfEC2ERKS0_
.Ltmp183:
	jmp	.LBB1_76
.LBB1_76:                               # %invoke.cont196
	leaq	-1768(%rbp), %rax
.Ltmp184:
	leaq	-424(%rbp), %rsi
	movq	%rax, %rdi
	movq	%rax, -2296(%rbp)       # 8-byte Spill
	callq	_ZN5TSpanILi2EfEC2ERKS0_
.Ltmp185:
	jmp	.LBB1_77
.LBB1_77:                               # %invoke.cont198
	leaq	-1736(%rbp), %rdi
.Ltmp187:
	leaq	-664(%rbp), %rsi
	callq	_ZN5TSpanILi2EfEC2ERKS0_
.Ltmp188:
	jmp	.LBB1_78
.LBB1_78:                               # %invoke.cont200
.Ltmp190:
	movl	$100, %edi
	leaq	-1800(%rbp), %rsi
	callq	_Z7time_fnIZ4mainE3$_6JEEviT_DpT0_
.Ltmp191:
	jmp	.LBB1_79
.LBB1_79:                               # %invoke.cont204
	leaq	-1800(%rbp), %rdi
	callq	_ZZ4mainEN3$_6D2Ev
.Ltmp193:
	movl	$_ZSt4cout, %eax
	movl	%eax, %edi
	movl	$.L.str.2, %eax
	movl	%eax, %esi
	callq	_ZStlsISt11char_traitsIcEERSt13basic_ostreamIcT_ES5_PKc
.Ltmp194:
	movq	%rax, -2304(%rbp)       # 8-byte Spill
	jmp	.LBB1_80
.LBB1_80:                               # %invoke.cont206
.Ltmp195:
	leaq	-664(%rbp), %rdi
	leaq	-456(%rbp), %rsi
	callq	_ZNK5TSpanILi2EfEeqERKS0_
.Ltmp196:
	movb	%al, -2305(%rbp)        # 1-byte Spill
	jmp	.LBB1_81
.LBB1_81:                               # %invoke.cont208
.Ltmp197:
	movb	-2305(%rbp), %al        # 1-byte Reload
	movzbl	%al, %ecx
	andl	$1, %ecx
	movq	-2304(%rbp), %rdi       # 8-byte Reload
	movl	%ecx, %esi
	callq	_ZNSolsEb
.Ltmp198:
	movq	%rax, -2320(%rbp)       # 8-byte Spill
	jmp	.LBB1_82
.LBB1_82:                               # %invoke.cont210
.Ltmp199:
	movl	$_ZSt4endlIcSt11char_traitsIcEERSt13basic_ostreamIT_T0_ES6_, %eax
	movl	%eax, %esi
	movq	-2320(%rbp), %rdi       # 8-byte Reload
	callq	_ZNSolsEPFRSoS_E
.Ltmp200:
	movq	%rax, -2328(%rbp)       # 8-byte Spill
	jmp	.LBB1_83
.LBB1_83:                               # %invoke.cont212
	leaq	-664(%rbp), %rdi
	callq	_ZN5TSpanILi2EfED2Ev
	leaq	-632(%rbp), %rdi
	callq	_ZN6TensorIfED2Ev
	leaq	-456(%rbp), %rdi
	callq	_ZN5TSpanILi2EfED2Ev
	leaq	-424(%rbp), %rdi
	callq	_ZN5TSpanILi2EfED2Ev
	leaq	-392(%rbp), %rdi
	callq	_ZN5TSpanILi2EfED2Ev
	leaq	-360(%rbp), %rdi
	callq	_ZN6TensorIfED2Ev
	leaq	-256(%rbp), %rdi
	callq	_ZN6TensorIfED2Ev
	leaq	-152(%rbp), %rdi
	callq	_ZN6TensorIfED2Ev
	leaq	-24(%rbp), %rdi
	callq	_ZNSt6vectorIiSaIiEED2Ev
	xorl	%eax, %eax
	addq	$2336, %rsp             # imm = 0x920
	popq	%rbp
	.cfi_def_cfa %rsp, 8
	retq
.LBB1_84:                               # %lpad
	.cfi_def_cfa %rbp, 16
.Ltmp2:
	movl	%edx, %ecx
	movq	%rax, -64(%rbp)
	movl	%ecx, -68(%rbp)
	leaq	-56(%rbp), %rdi
	callq	_ZNSaIiED2Ev
	jmp	.LBB1_136
.LBB1_85:                               # %lpad9
.Ltmp5:
	movl	%edx, %ecx
	movq	%rax, -64(%rbp)
	movl	%ecx, -68(%rbp)
	jmp	.LBB1_135
.LBB1_86:                               # %lpad18
.Ltmp8:
	movl	%edx, %ecx
	movq	%rax, -64(%rbp)
	movl	%ecx, -68(%rbp)
	jmp	.LBB1_134
.LBB1_87:                               # %lpad20
.Ltmp11:
	movl	%edx, %ecx
	movq	%rax, -64(%rbp)
	movl	%ecx, -68(%rbp)
	jmp	.LBB1_133
.LBB1_88:                               # %lpad22
.Ltmp14:
	movl	%edx, %ecx
	movq	%rax, -64(%rbp)
	movl	%ecx, -68(%rbp)
	jmp	.LBB1_132
.LBB1_89:                               # %lpad24
.Ltmp17:
	movl	%edx, %ecx
	movq	%rax, -64(%rbp)
	movl	%ecx, -68(%rbp)
	jmp	.LBB1_131
.LBB1_90:                               # %lpad26
.Ltmp20:
	movl	%edx, %ecx
	movq	%rax, -64(%rbp)
	movl	%ecx, -68(%rbp)
	jmp	.LBB1_130
.LBB1_91:                               # %lpad28
.Ltmp36:
	movl	%edx, %ecx
	movq	%rax, -64(%rbp)
	movl	%ecx, -68(%rbp)
	jmp	.LBB1_129
.LBB1_92:                               # %lpad32
.Ltmp27:
	movl	%edx, %ecx
	movq	%rax, -64(%rbp)
	movl	%ecx, -68(%rbp)
	jmp	.LBB1_94
.LBB1_93:                               # %lpad34
.Ltmp30:
	movl	%edx, %ecx
	movq	%rax, -64(%rbp)
	movl	%ecx, -68(%rbp)
	movq	-1832(%rbp), %rdi       # 8-byte Reload
	callq	_ZN5TSpanILi2EfED2Ev
.LBB1_94:                               # %ehcleanup
	movq	-1824(%rbp), %rdi       # 8-byte Reload
	callq	_ZN5TSpanILi2EfED2Ev
	jmp	.LBB1_129
.LBB1_95:                               # %lpad36
.Ltmp33:
	movl	%edx, %ecx
	movq	%rax, -64(%rbp)
	movl	%ecx, -68(%rbp)
	leaq	-552(%rbp), %rdi
	callq	_ZZ4mainEN3$_0D2Ev
	jmp	.LBB1_129
.LBB1_96:                               # %lpad40
.Ltmp39:
	movl	%edx, %ecx
	movq	%rax, -64(%rbp)
	movl	%ecx, -68(%rbp)
	jmp	.LBB1_128
.LBB1_97:                               # %lpad42
.Ltmp201:
	movl	%edx, %ecx
	movq	%rax, -64(%rbp)
	movl	%ecx, -68(%rbp)
	jmp	.LBB1_127
.LBB1_98:                               # %lpad47
.Ltmp46:
	movl	%edx, %ecx
	movq	%rax, -64(%rbp)
	movl	%ecx, -68(%rbp)
	jmp	.LBB1_100
.LBB1_99:                               # %lpad49
.Ltmp49:
	movl	%edx, %ecx
	movq	%rax, -64(%rbp)
	movl	%ecx, -68(%rbp)
	movq	-1856(%rbp), %rdi       # 8-byte Reload
	callq	_ZN5TSpanILi2EfED2Ev
.LBB1_100:                              # %ehcleanup52
	movq	-1848(%rbp), %rdi       # 8-byte Reload
	callq	_ZN5TSpanILi2EfED2Ev
	jmp	.LBB1_127
.LBB1_101:                              # %lpad53
.Ltmp52:
	movl	%edx, %ecx
	movq	%rax, -64(%rbp)
	movl	%ecx, -68(%rbp)
	leaq	-760(%rbp), %rdi
	callq	_ZZ4mainEN3$_1D2Ev
	jmp	.LBB1_127
.LBB1_102:                              # %lpad69
.Ltmp67:
	movl	%edx, %ecx
	movq	%rax, -64(%rbp)
	movl	%ecx, -68(%rbp)
	leaq	-872(%rbp), %rdi
	callq	_ZN5TSpanILi2EfED2Ev
	jmp	.LBB1_127
.LBB1_103:                              # %lpad77
.Ltmp74:
	movl	%edx, %ecx
	movq	%rax, -64(%rbp)
	movl	%ecx, -68(%rbp)
	jmp	.LBB1_105
.LBB1_104:                              # %lpad79
.Ltmp77:
	movl	%edx, %ecx
	movq	%rax, -64(%rbp)
	movl	%ecx, -68(%rbp)
	movq	-1944(%rbp), %rdi       # 8-byte Reload
	callq	_ZN5TSpanILi2EfED2Ev
.LBB1_105:                              # %ehcleanup82
	movq	-1936(%rbp), %rdi       # 8-byte Reload
	callq	_ZN5TSpanILi2EfED2Ev
	jmp	.LBB1_127
.LBB1_106:                              # %lpad83
.Ltmp80:
	movl	%edx, %ecx
	movq	%rax, -64(%rbp)
	movl	%ecx, -68(%rbp)
	leaq	-968(%rbp), %rdi
	callq	_ZZ4mainEN3$_2D2Ev
	jmp	.LBB1_127
.LBB1_107:                              # %lpad99
.Ltmp95:
	movl	%edx, %ecx
	movq	%rax, -64(%rbp)
	movl	%ecx, -68(%rbp)
	leaq	-1080(%rbp), %rdi
	callq	_ZN5TSpanILi2EfED2Ev
	jmp	.LBB1_127
.LBB1_108:                              # %lpad107
.Ltmp102:
	movl	%edx, %ecx
	movq	%rax, -64(%rbp)
	movl	%ecx, -68(%rbp)
	jmp	.LBB1_110
.LBB1_109:                              # %lpad109
.Ltmp105:
	movl	%edx, %ecx
	movq	%rax, -64(%rbp)
	movl	%ecx, -68(%rbp)
	movq	-2032(%rbp), %rdi       # 8-byte Reload
	callq	_ZN5TSpanILi2EfED2Ev
.LBB1_110:                              # %ehcleanup112
	movq	-2024(%rbp), %rdi       # 8-byte Reload
	callq	_ZN5TSpanILi2EfED2Ev
	jmp	.LBB1_127
.LBB1_111:                              # %lpad113
.Ltmp108:
	movl	%edx, %ecx
	movq	%rax, -64(%rbp)
	movl	%ecx, -68(%rbp)
	leaq	-1176(%rbp), %rdi
	callq	_ZZ4mainEN3$_3D2Ev
	jmp	.LBB1_127
.LBB1_112:                              # %lpad129
.Ltmp123:
	movl	%edx, %ecx
	movq	%rax, -64(%rbp)
	movl	%ecx, -68(%rbp)
	leaq	-1288(%rbp), %rdi
	callq	_ZN5TSpanILi2EfED2Ev
	jmp	.LBB1_127
.LBB1_113:                              # %lpad137
.Ltmp130:
	movl	%edx, %ecx
	movq	%rax, -64(%rbp)
	movl	%ecx, -68(%rbp)
	jmp	.LBB1_115
.LBB1_114:                              # %lpad139
.Ltmp133:
	movl	%edx, %ecx
	movq	%rax, -64(%rbp)
	movl	%ecx, -68(%rbp)
	movq	-2120(%rbp), %rdi       # 8-byte Reload
	callq	_ZN5TSpanILi2EfED2Ev
.LBB1_115:                              # %ehcleanup142
	movq	-2112(%rbp), %rdi       # 8-byte Reload
	callq	_ZN5TSpanILi2EfED2Ev
	jmp	.LBB1_127
.LBB1_116:                              # %lpad143
.Ltmp136:
	movl	%edx, %ecx
	movq	%rax, -64(%rbp)
	movl	%ecx, -68(%rbp)
	leaq	-1384(%rbp), %rdi
	callq	_ZZ4mainEN3$_4D2Ev
	jmp	.LBB1_127
.LBB1_117:                              # %lpad159
.Ltmp151:
	movl	%edx, %ecx
	movq	%rax, -64(%rbp)
	movl	%ecx, -68(%rbp)
	leaq	-1496(%rbp), %rdi
	callq	_ZN5TSpanILi2EfED2Ev
	jmp	.LBB1_127
.LBB1_118:                              # %lpad167
.Ltmp158:
	movl	%edx, %ecx
	movq	%rax, -64(%rbp)
	movl	%ecx, -68(%rbp)
	jmp	.LBB1_120
.LBB1_119:                              # %lpad169
.Ltmp161:
	movl	%edx, %ecx
	movq	%rax, -64(%rbp)
	movl	%ecx, -68(%rbp)
	movq	-2208(%rbp), %rdi       # 8-byte Reload
	callq	_ZN5TSpanILi2EfED2Ev
.LBB1_120:                              # %ehcleanup172
	movq	-2200(%rbp), %rdi       # 8-byte Reload
	callq	_ZN5TSpanILi2EfED2Ev
	jmp	.LBB1_127
.LBB1_121:                              # %lpad173
.Ltmp164:
	movl	%edx, %ecx
	movq	%rax, -64(%rbp)
	movl	%ecx, -68(%rbp)
	leaq	-1592(%rbp), %rdi
	callq	_ZZ4mainEN3$_5D2Ev
	jmp	.LBB1_127
.LBB1_122:                              # %lpad189
.Ltmp179:
	movl	%edx, %ecx
	movq	%rax, -64(%rbp)
	movl	%ecx, -68(%rbp)
	leaq	-1704(%rbp), %rdi
	callq	_ZN5TSpanILi2EfED2Ev
	jmp	.LBB1_127
.LBB1_123:                              # %lpad197
.Ltmp186:
	movl	%edx, %ecx
	movq	%rax, -64(%rbp)
	movl	%ecx, -68(%rbp)
	jmp	.LBB1_125
.LBB1_124:                              # %lpad199
.Ltmp189:
	movl	%edx, %ecx
	movq	%rax, -64(%rbp)
	movl	%ecx, -68(%rbp)
	movq	-2296(%rbp), %rdi       # 8-byte Reload
	callq	_ZN5TSpanILi2EfED2Ev
.LBB1_125:                              # %ehcleanup202
	movq	-2288(%rbp), %rdi       # 8-byte Reload
	callq	_ZN5TSpanILi2EfED2Ev
	jmp	.LBB1_127
.LBB1_126:                              # %lpad203
.Ltmp192:
	movl	%edx, %ecx
	movq	%rax, -64(%rbp)
	movl	%ecx, -68(%rbp)
	leaq	-1800(%rbp), %rdi
	callq	_ZZ4mainEN3$_6D2Ev
.LBB1_127:                              # %ehcleanup214
	leaq	-664(%rbp), %rdi
	callq	_ZN5TSpanILi2EfED2Ev
.LBB1_128:                              # %ehcleanup215
	leaq	-632(%rbp), %rdi
	callq	_ZN6TensorIfED2Ev
.LBB1_129:                              # %ehcleanup216
	leaq	-456(%rbp), %rdi
	callq	_ZN5TSpanILi2EfED2Ev
.LBB1_130:                              # %ehcleanup217
	leaq	-424(%rbp), %rdi
	callq	_ZN5TSpanILi2EfED2Ev
.LBB1_131:                              # %ehcleanup218
	leaq	-392(%rbp), %rdi
	callq	_ZN5TSpanILi2EfED2Ev
.LBB1_132:                              # %ehcleanup219
	leaq	-360(%rbp), %rdi
	callq	_ZN6TensorIfED2Ev
.LBB1_133:                              # %ehcleanup220
	leaq	-256(%rbp), %rdi
	callq	_ZN6TensorIfED2Ev
.LBB1_134:                              # %ehcleanup221
	leaq	-152(%rbp), %rdi
	callq	_ZN6TensorIfED2Ev
.LBB1_135:                              # %ehcleanup222
	leaq	-24(%rbp), %rdi
	callq	_ZNSt6vectorIiSaIiEED2Ev
.LBB1_136:                              # %eh.resume
	movq	-64(%rbp), %rdi
	callq	_Unwind_Resume
.Lfunc_end1:
	.size	main, .Lfunc_end1-main
	.cfi_endproc
	.section	.gcc_except_table,"a",@progbits
	.p2align	2
GCC_except_table1:
.Lexception0:
	.byte	255                     # @LPStart Encoding = omit
	.byte	255                     # @TType Encoding = omit
	.byte	1                       # Call site Encoding = uleb128
	.uleb128 .Lcst_end0-.Lcst_begin0
.Lcst_begin0:
	.uleb128 .Ltmp0-.Lfunc_begin0   # >> Call Site 1 <<
	.uleb128 .Ltmp1-.Ltmp0          #   Call between .Ltmp0 and .Ltmp1
	.uleb128 .Ltmp2-.Lfunc_begin0   #     jumps to .Ltmp2
	.byte	0                       #   On action: cleanup
	.uleb128 .Ltmp3-.Lfunc_begin0   # >> Call Site 2 <<
	.uleb128 .Ltmp4-.Ltmp3          #   Call between .Ltmp3 and .Ltmp4
	.uleb128 .Ltmp5-.Lfunc_begin0   #     jumps to .Ltmp5
	.byte	0                       #   On action: cleanup
	.uleb128 .Ltmp6-.Lfunc_begin0   # >> Call Site 3 <<
	.uleb128 .Ltmp7-.Ltmp6          #   Call between .Ltmp6 and .Ltmp7
	.uleb128 .Ltmp8-.Lfunc_begin0   #     jumps to .Ltmp8
	.byte	0                       #   On action: cleanup
	.uleb128 .Ltmp9-.Lfunc_begin0   # >> Call Site 4 <<
	.uleb128 .Ltmp10-.Ltmp9         #   Call between .Ltmp9 and .Ltmp10
	.uleb128 .Ltmp11-.Lfunc_begin0  #     jumps to .Ltmp11
	.byte	0                       #   On action: cleanup
	.uleb128 .Ltmp12-.Lfunc_begin0  # >> Call Site 5 <<
	.uleb128 .Ltmp13-.Ltmp12        #   Call between .Ltmp12 and .Ltmp13
	.uleb128 .Ltmp14-.Lfunc_begin0  #     jumps to .Ltmp14
	.byte	0                       #   On action: cleanup
	.uleb128 .Ltmp15-.Lfunc_begin0  # >> Call Site 6 <<
	.uleb128 .Ltmp16-.Ltmp15        #   Call between .Ltmp15 and .Ltmp16
	.uleb128 .Ltmp17-.Lfunc_begin0  #     jumps to .Ltmp17
	.byte	0                       #   On action: cleanup
	.uleb128 .Ltmp18-.Lfunc_begin0  # >> Call Site 7 <<
	.uleb128 .Ltmp19-.Ltmp18        #   Call between .Ltmp18 and .Ltmp19
	.uleb128 .Ltmp20-.Lfunc_begin0  #     jumps to .Ltmp20
	.byte	0                       #   On action: cleanup
	.uleb128 .Ltmp21-.Lfunc_begin0  # >> Call Site 8 <<
	.uleb128 .Ltmp24-.Ltmp21        #   Call between .Ltmp21 and .Ltmp24
	.uleb128 .Ltmp36-.Lfunc_begin0  #     jumps to .Ltmp36
	.byte	0                       #   On action: cleanup
	.uleb128 .Ltmp25-.Lfunc_begin0  # >> Call Site 9 <<
	.uleb128 .Ltmp26-.Ltmp25        #   Call between .Ltmp25 and .Ltmp26
	.uleb128 .Ltmp27-.Lfunc_begin0  #     jumps to .Ltmp27
	.byte	0                       #   On action: cleanup
	.uleb128 .Ltmp28-.Lfunc_begin0  # >> Call Site 10 <<
	.uleb128 .Ltmp29-.Ltmp28        #   Call between .Ltmp28 and .Ltmp29
	.uleb128 .Ltmp30-.Lfunc_begin0  #     jumps to .Ltmp30
	.byte	0                       #   On action: cleanup
	.uleb128 .Ltmp31-.Lfunc_begin0  # >> Call Site 11 <<
	.uleb128 .Ltmp32-.Ltmp31        #   Call between .Ltmp31 and .Ltmp32
	.uleb128 .Ltmp33-.Lfunc_begin0  #     jumps to .Ltmp33
	.byte	0                       #   On action: cleanup
	.uleb128 .Ltmp34-.Lfunc_begin0  # >> Call Site 12 <<
	.uleb128 .Ltmp35-.Ltmp34        #   Call between .Ltmp34 and .Ltmp35
	.uleb128 .Ltmp36-.Lfunc_begin0  #     jumps to .Ltmp36
	.byte	0                       #   On action: cleanup
	.uleb128 .Ltmp37-.Lfunc_begin0  # >> Call Site 13 <<
	.uleb128 .Ltmp38-.Ltmp37        #   Call between .Ltmp37 and .Ltmp38
	.uleb128 .Ltmp39-.Lfunc_begin0  #     jumps to .Ltmp39
	.byte	0                       #   On action: cleanup
	.uleb128 .Ltmp40-.Lfunc_begin0  # >> Call Site 14 <<
	.uleb128 .Ltmp43-.Ltmp40        #   Call between .Ltmp40 and .Ltmp43
	.uleb128 .Ltmp201-.Lfunc_begin0 #     jumps to .Ltmp201
	.byte	0                       #   On action: cleanup
	.uleb128 .Ltmp44-.Lfunc_begin0  # >> Call Site 15 <<
	.uleb128 .Ltmp45-.Ltmp44        #   Call between .Ltmp44 and .Ltmp45
	.uleb128 .Ltmp46-.Lfunc_begin0  #     jumps to .Ltmp46
	.byte	0                       #   On action: cleanup
	.uleb128 .Ltmp47-.Lfunc_begin0  # >> Call Site 16 <<
	.uleb128 .Ltmp48-.Ltmp47        #   Call between .Ltmp47 and .Ltmp48
	.uleb128 .Ltmp49-.Lfunc_begin0  #     jumps to .Ltmp49
	.byte	0                       #   On action: cleanup
	.uleb128 .Ltmp50-.Lfunc_begin0  # >> Call Site 17 <<
	.uleb128 .Ltmp51-.Ltmp50        #   Call between .Ltmp50 and .Ltmp51
	.uleb128 .Ltmp52-.Lfunc_begin0  #     jumps to .Ltmp52
	.byte	0                       #   On action: cleanup
	.uleb128 .Ltmp53-.Lfunc_begin0  # >> Call Site 18 <<
	.uleb128 .Ltmp64-.Ltmp53        #   Call between .Ltmp53 and .Ltmp64
	.uleb128 .Ltmp201-.Lfunc_begin0 #     jumps to .Ltmp201
	.byte	0                       #   On action: cleanup
	.uleb128 .Ltmp65-.Lfunc_begin0  # >> Call Site 19 <<
	.uleb128 .Ltmp66-.Ltmp65        #   Call between .Ltmp65 and .Ltmp66
	.uleb128 .Ltmp67-.Lfunc_begin0  #     jumps to .Ltmp67
	.byte	0                       #   On action: cleanup
	.uleb128 .Ltmp68-.Lfunc_begin0  # >> Call Site 20 <<
	.uleb128 .Ltmp71-.Ltmp68        #   Call between .Ltmp68 and .Ltmp71
	.uleb128 .Ltmp201-.Lfunc_begin0 #     jumps to .Ltmp201
	.byte	0                       #   On action: cleanup
	.uleb128 .Ltmp72-.Lfunc_begin0  # >> Call Site 21 <<
	.uleb128 .Ltmp73-.Ltmp72        #   Call between .Ltmp72 and .Ltmp73
	.uleb128 .Ltmp74-.Lfunc_begin0  #     jumps to .Ltmp74
	.byte	0                       #   On action: cleanup
	.uleb128 .Ltmp75-.Lfunc_begin0  # >> Call Site 22 <<
	.uleb128 .Ltmp76-.Ltmp75        #   Call between .Ltmp75 and .Ltmp76
	.uleb128 .Ltmp77-.Lfunc_begin0  #     jumps to .Ltmp77
	.byte	0                       #   On action: cleanup
	.uleb128 .Ltmp78-.Lfunc_begin0  # >> Call Site 23 <<
	.uleb128 .Ltmp79-.Ltmp78        #   Call between .Ltmp78 and .Ltmp79
	.uleb128 .Ltmp80-.Lfunc_begin0  #     jumps to .Ltmp80
	.byte	0                       #   On action: cleanup
	.uleb128 .Ltmp81-.Lfunc_begin0  # >> Call Site 24 <<
	.uleb128 .Ltmp92-.Ltmp81        #   Call between .Ltmp81 and .Ltmp92
	.uleb128 .Ltmp201-.Lfunc_begin0 #     jumps to .Ltmp201
	.byte	0                       #   On action: cleanup
	.uleb128 .Ltmp93-.Lfunc_begin0  # >> Call Site 25 <<
	.uleb128 .Ltmp94-.Ltmp93        #   Call between .Ltmp93 and .Ltmp94
	.uleb128 .Ltmp95-.Lfunc_begin0  #     jumps to .Ltmp95
	.byte	0                       #   On action: cleanup
	.uleb128 .Ltmp96-.Lfunc_begin0  # >> Call Site 26 <<
	.uleb128 .Ltmp99-.Ltmp96        #   Call between .Ltmp96 and .Ltmp99
	.uleb128 .Ltmp201-.Lfunc_begin0 #     jumps to .Ltmp201
	.byte	0                       #   On action: cleanup
	.uleb128 .Ltmp100-.Lfunc_begin0 # >> Call Site 27 <<
	.uleb128 .Ltmp101-.Ltmp100      #   Call between .Ltmp100 and .Ltmp101
	.uleb128 .Ltmp102-.Lfunc_begin0 #     jumps to .Ltmp102
	.byte	0                       #   On action: cleanup
	.uleb128 .Ltmp103-.Lfunc_begin0 # >> Call Site 28 <<
	.uleb128 .Ltmp104-.Ltmp103      #   Call between .Ltmp103 and .Ltmp104
	.uleb128 .Ltmp105-.Lfunc_begin0 #     jumps to .Ltmp105
	.byte	0                       #   On action: cleanup
	.uleb128 .Ltmp106-.Lfunc_begin0 # >> Call Site 29 <<
	.uleb128 .Ltmp107-.Ltmp106      #   Call between .Ltmp106 and .Ltmp107
	.uleb128 .Ltmp108-.Lfunc_begin0 #     jumps to .Ltmp108
	.byte	0                       #   On action: cleanup
	.uleb128 .Ltmp109-.Lfunc_begin0 # >> Call Site 30 <<
	.uleb128 .Ltmp120-.Ltmp109      #   Call between .Ltmp109 and .Ltmp120
	.uleb128 .Ltmp201-.Lfunc_begin0 #     jumps to .Ltmp201
	.byte	0                       #   On action: cleanup
	.uleb128 .Ltmp121-.Lfunc_begin0 # >> Call Site 31 <<
	.uleb128 .Ltmp122-.Ltmp121      #   Call between .Ltmp121 and .Ltmp122
	.uleb128 .Ltmp123-.Lfunc_begin0 #     jumps to .Ltmp123
	.byte	0                       #   On action: cleanup
	.uleb128 .Ltmp124-.Lfunc_begin0 # >> Call Site 32 <<
	.uleb128 .Ltmp127-.Ltmp124      #   Call between .Ltmp124 and .Ltmp127
	.uleb128 .Ltmp201-.Lfunc_begin0 #     jumps to .Ltmp201
	.byte	0                       #   On action: cleanup
	.uleb128 .Ltmp128-.Lfunc_begin0 # >> Call Site 33 <<
	.uleb128 .Ltmp129-.Ltmp128      #   Call between .Ltmp128 and .Ltmp129
	.uleb128 .Ltmp130-.Lfunc_begin0 #     jumps to .Ltmp130
	.byte	0                       #   On action: cleanup
	.uleb128 .Ltmp131-.Lfunc_begin0 # >> Call Site 34 <<
	.uleb128 .Ltmp132-.Ltmp131      #   Call between .Ltmp131 and .Ltmp132
	.uleb128 .Ltmp133-.Lfunc_begin0 #     jumps to .Ltmp133
	.byte	0                       #   On action: cleanup
	.uleb128 .Ltmp134-.Lfunc_begin0 # >> Call Site 35 <<
	.uleb128 .Ltmp135-.Ltmp134      #   Call between .Ltmp134 and .Ltmp135
	.uleb128 .Ltmp136-.Lfunc_begin0 #     jumps to .Ltmp136
	.byte	0                       #   On action: cleanup
	.uleb128 .Ltmp137-.Lfunc_begin0 # >> Call Site 36 <<
	.uleb128 .Ltmp148-.Ltmp137      #   Call between .Ltmp137 and .Ltmp148
	.uleb128 .Ltmp201-.Lfunc_begin0 #     jumps to .Ltmp201
	.byte	0                       #   On action: cleanup
	.uleb128 .Ltmp149-.Lfunc_begin0 # >> Call Site 37 <<
	.uleb128 .Ltmp150-.Ltmp149      #   Call between .Ltmp149 and .Ltmp150
	.uleb128 .Ltmp151-.Lfunc_begin0 #     jumps to .Ltmp151
	.byte	0                       #   On action: cleanup
	.uleb128 .Ltmp152-.Lfunc_begin0 # >> Call Site 38 <<
	.uleb128 .Ltmp155-.Ltmp152      #   Call between .Ltmp152 and .Ltmp155
	.uleb128 .Ltmp201-.Lfunc_begin0 #     jumps to .Ltmp201
	.byte	0                       #   On action: cleanup
	.uleb128 .Ltmp156-.Lfunc_begin0 # >> Call Site 39 <<
	.uleb128 .Ltmp157-.Ltmp156      #   Call between .Ltmp156 and .Ltmp157
	.uleb128 .Ltmp158-.Lfunc_begin0 #     jumps to .Ltmp158
	.byte	0                       #   On action: cleanup
	.uleb128 .Ltmp159-.Lfunc_begin0 # >> Call Site 40 <<
	.uleb128 .Ltmp160-.Ltmp159      #   Call between .Ltmp159 and .Ltmp160
	.uleb128 .Ltmp161-.Lfunc_begin0 #     jumps to .Ltmp161
	.byte	0                       #   On action: cleanup
	.uleb128 .Ltmp162-.Lfunc_begin0 # >> Call Site 41 <<
	.uleb128 .Ltmp163-.Ltmp162      #   Call between .Ltmp162 and .Ltmp163
	.uleb128 .Ltmp164-.Lfunc_begin0 #     jumps to .Ltmp164
	.byte	0                       #   On action: cleanup
	.uleb128 .Ltmp165-.Lfunc_begin0 # >> Call Site 42 <<
	.uleb128 .Ltmp176-.Ltmp165      #   Call between .Ltmp165 and .Ltmp176
	.uleb128 .Ltmp201-.Lfunc_begin0 #     jumps to .Ltmp201
	.byte	0                       #   On action: cleanup
	.uleb128 .Ltmp177-.Lfunc_begin0 # >> Call Site 43 <<
	.uleb128 .Ltmp178-.Ltmp177      #   Call between .Ltmp177 and .Ltmp178
	.uleb128 .Ltmp179-.Lfunc_begin0 #     jumps to .Ltmp179
	.byte	0                       #   On action: cleanup
	.uleb128 .Ltmp180-.Lfunc_begin0 # >> Call Site 44 <<
	.uleb128 .Ltmp183-.Ltmp180      #   Call between .Ltmp180 and .Ltmp183
	.uleb128 .Ltmp201-.Lfunc_begin0 #     jumps to .Ltmp201
	.byte	0                       #   On action: cleanup
	.uleb128 .Ltmp184-.Lfunc_begin0 # >> Call Site 45 <<
	.uleb128 .Ltmp185-.Ltmp184      #   Call between .Ltmp184 and .Ltmp185
	.uleb128 .Ltmp186-.Lfunc_begin0 #     jumps to .Ltmp186
	.byte	0                       #   On action: cleanup
	.uleb128 .Ltmp187-.Lfunc_begin0 # >> Call Site 46 <<
	.uleb128 .Ltmp188-.Ltmp187      #   Call between .Ltmp187 and .Ltmp188
	.uleb128 .Ltmp189-.Lfunc_begin0 #     jumps to .Ltmp189
	.byte	0                       #   On action: cleanup
	.uleb128 .Ltmp190-.Lfunc_begin0 # >> Call Site 47 <<
	.uleb128 .Ltmp191-.Ltmp190      #   Call between .Ltmp190 and .Ltmp191
	.uleb128 .Ltmp192-.Lfunc_begin0 #     jumps to .Ltmp192
	.byte	0                       #   On action: cleanup
	.uleb128 .Ltmp193-.Lfunc_begin0 # >> Call Site 48 <<
	.uleb128 .Ltmp200-.Ltmp193      #   Call between .Ltmp193 and .Ltmp200
	.uleb128 .Ltmp201-.Lfunc_begin0 #     jumps to .Ltmp201
	.byte	0                       #   On action: cleanup
	.uleb128 .Ltmp200-.Lfunc_begin0 # >> Call Site 49 <<
	.uleb128 .Lfunc_end1-.Ltmp200   #   Call between .Ltmp200 and .Lfunc_end1
	.byte	0                       #     has no landing pad
	.byte	0                       #   On action: cleanup
.Lcst_end0:
	.p2align	2
                                        # -- End function
	.section	.text._ZNSaIiEC2Ev,"axG",@progbits,_ZNSaIiEC2Ev,comdat
	.weak	_ZNSaIiEC2Ev            # -- Begin function _ZNSaIiEC2Ev
	.p2align	4, 0x90
	.type	_ZNSaIiEC2Ev,@function
_ZNSaIiEC2Ev:                           # @_ZNSaIiEC2Ev
	.cfi_startproc
# %bb.0:                                # %entry
	pushq	%rbp
	.cfi_def_cfa_offset 16
	.cfi_offset %rbp, -16
	movq	%rsp, %rbp
	.cfi_def_cfa_register %rbp
	subq	$16, %rsp
	movq	%rdi, -8(%rbp)
	movq	-8(%rbp), %rdi
	callq	_ZN9__gnu_cxx13new_allocatorIiEC2Ev
	addq	$16, %rsp
	popq	%rbp
	.cfi_def_cfa %rsp, 8
	retq
.Lfunc_end2:
	.size	_ZNSaIiEC2Ev, .Lfunc_end2-_ZNSaIiEC2Ev
	.cfi_endproc
                                        # -- End function
	.section	.text._ZNSt6vectorIiSaIiEEC2ESt16initializer_listIiERKS0_,"axG",@progbits,_ZNSt6vectorIiSaIiEEC2ESt16initializer_listIiERKS0_,comdat
	.weak	_ZNSt6vectorIiSaIiEEC2ESt16initializer_listIiERKS0_ # -- Begin function _ZNSt6vectorIiSaIiEEC2ESt16initializer_listIiERKS0_
	.p2align	4, 0x90
	.type	_ZNSt6vectorIiSaIiEEC2ESt16initializer_listIiERKS0_,@function
_ZNSt6vectorIiSaIiEEC2ESt16initializer_listIiERKS0_: # @_ZNSt6vectorIiSaIiEEC2ESt16initializer_listIiERKS0_
.Lfunc_begin1:
	.cfi_startproc
	.cfi_personality 3, __gxx_personality_v0
	.cfi_lsda 3, .Lexception1
# %bb.0:                                # %entry
	pushq	%rbp
	.cfi_def_cfa_offset 16
	.cfi_offset %rbp, -16
	movq	%rsp, %rbp
	.cfi_def_cfa_register %rbp
	subq	$96, %rsp
	movq	%rsi, -16(%rbp)
	movq	%rdx, -8(%rbp)
	movq	%rdi, -24(%rbp)
	movq	%rcx, -32(%rbp)
	movq	-24(%rbp), %rcx
	movq	-32(%rbp), %rsi
	movq	%rcx, %rdi
	movq	%rcx, -72(%rbp)         # 8-byte Spill
	callq	_ZNSt12_Vector_baseIiSaIiEEC2ERKS0_
	leaq	-16(%rbp), %rcx
	movq	%rcx, %rdi
	movq	%rcx, -80(%rbp)         # 8-byte Spill
	callq	_ZNKSt16initializer_listIiE5beginEv
	movq	-80(%rbp), %rdi         # 8-byte Reload
	movq	%rax, -88(%rbp)         # 8-byte Spill
	callq	_ZNKSt16initializer_listIiE3endEv
.Ltmp202:
	movq	-72(%rbp), %rdi         # 8-byte Reload
	movq	-88(%rbp), %rsi         # 8-byte Reload
	movq	%rax, %rdx
	callq	_ZNSt6vectorIiSaIiEE19_M_range_initializeIPKiEEvT_S5_St20forward_iterator_tag
.Ltmp203:
	jmp	.LBB3_1
.LBB3_1:                                # %invoke.cont
	addq	$96, %rsp
	popq	%rbp
	.cfi_def_cfa %rsp, 8
	retq
.LBB3_2:                                # %lpad
	.cfi_def_cfa %rbp, 16
.Ltmp204:
	movl	%edx, %ecx
	movq	%rax, -56(%rbp)
	movl	%ecx, -60(%rbp)
	movq	-72(%rbp), %rax         # 8-byte Reload
	movq	%rax, %rdi
	callq	_ZNSt12_Vector_baseIiSaIiEED2Ev
# %bb.3:                                # %eh.resume
	movq	-56(%rbp), %rdi
	callq	_Unwind_Resume
.Lfunc_end3:
	.size	_ZNSt6vectorIiSaIiEEC2ESt16initializer_listIiERKS0_, .Lfunc_end3-_ZNSt6vectorIiSaIiEEC2ESt16initializer_listIiERKS0_
	.cfi_endproc
	.section	.gcc_except_table,"a",@progbits
	.p2align	2
GCC_except_table3:
.Lexception1:
	.byte	255                     # @LPStart Encoding = omit
	.byte	255                     # @TType Encoding = omit
	.byte	1                       # Call site Encoding = uleb128
	.uleb128 .Lcst_end1-.Lcst_begin1
.Lcst_begin1:
	.uleb128 .Ltmp202-.Lfunc_begin1 # >> Call Site 1 <<
	.uleb128 .Ltmp203-.Ltmp202      #   Call between .Ltmp202 and .Ltmp203
	.uleb128 .Ltmp204-.Lfunc_begin1 #     jumps to .Ltmp204
	.byte	0                       #   On action: cleanup
	.uleb128 .Ltmp203-.Lfunc_begin1 # >> Call Site 2 <<
	.uleb128 .Lfunc_end3-.Ltmp203   #   Call between .Ltmp203 and .Lfunc_end3
	.byte	0                       #     has no landing pad
	.byte	0                       #   On action: cleanup
.Lcst_end1:
	.p2align	2
                                        # -- End function
	.section	.text._ZNSaIiED2Ev,"axG",@progbits,_ZNSaIiED2Ev,comdat
	.weak	_ZNSaIiED2Ev            # -- Begin function _ZNSaIiED2Ev
	.p2align	4, 0x90
	.type	_ZNSaIiED2Ev,@function
_ZNSaIiED2Ev:                           # @_ZNSaIiED2Ev
	.cfi_startproc
# %bb.0:                                # %entry
	pushq	%rbp
	.cfi_def_cfa_offset 16
	.cfi_offset %rbp, -16
	movq	%rsp, %rbp
	.cfi_def_cfa_register %rbp
	subq	$16, %rsp
	movq	%rdi, -8(%rbp)
	movq	-8(%rbp), %rdi
	callq	_ZN9__gnu_cxx13new_allocatorIiED2Ev
	addq	$16, %rsp
	popq	%rbp
	.cfi_def_cfa %rsp, 8
	retq
.Lfunc_end4:
	.size	_ZNSaIiED2Ev, .Lfunc_end4-_ZNSaIiED2Ev
	.cfi_endproc
                                        # -- End function
	.section	.rodata.cst4,"aM",@progbits,4
	.p2align	2               # -- Begin function _Z18make_random_tensorIfE6TensorIT_ESt16initializer_listIiEj
.LCPI5_0:
	.long	3212836864              # float -1
.LCPI5_1:
	.long	1065353216              # float 1
	.section	.text._Z18make_random_tensorIfE6TensorIT_ESt16initializer_listIiEj,"axG",@progbits,_Z18make_random_tensorIfE6TensorIT_ESt16initializer_listIiEj,comdat
	.weak	_Z18make_random_tensorIfE6TensorIT_ESt16initializer_listIiEj
	.p2align	4, 0x90
	.type	_Z18make_random_tensorIfE6TensorIT_ESt16initializer_listIiEj,@function
_Z18make_random_tensorIfE6TensorIT_ESt16initializer_listIiEj: # @_Z18make_random_tensorIfE6TensorIT_ESt16initializer_listIiEj
.Lfunc_begin2:
	.cfi_startproc
	.cfi_personality 3, __gxx_personality_v0
	.cfi_lsda 3, .Lexception2
# %bb.0:                                # %entry
	pushq	%rbp
	.cfi_def_cfa_offset 16
	.cfi_offset %rbp, -16
	movq	%rsp, %rbp
	.cfi_def_cfa_register %rbp
	subq	$192, %rsp
	movq	%rdi, %rax
	movq	%rsi, -16(%rbp)
	movq	%rdx, -8(%rbp)
	movl	%ecx, -20(%rbp)
	movups	-16(%rbp), %xmm0
	movaps	%xmm0, -64(%rbp)
	leaq	-72(%rbp), %rdx
	movq	%rdi, -152(%rbp)        # 8-byte Spill
	movq	%rdx, %rdi
	movq	%rax, -160(%rbp)        # 8-byte Spill
	movq	%rdx, -168(%rbp)        # 8-byte Spill
	callq	_ZNSaIiEC2Ev
	movq	-64(%rbp), %rsi
	movq	-56(%rbp), %rdx
.Ltmp205:
	leaq	-48(%rbp), %rdi
	movq	-168(%rbp), %rcx        # 8-byte Reload
	callq	_ZNSt6vectorIiSaIiEEC2ESt16initializer_listIiERKS0_
.Ltmp206:
	jmp	.LBB5_1
.LBB5_1:                                # %invoke.cont
	leaq	-72(%rbp), %rdi
	callq	_ZNSaIiED2Ev
.Ltmp208:
	leaq	-112(%rbp), %rdi
	movss	.LCPI5_0(%rip), %xmm0   # xmm0 = mem[0],zero,zero,zero
	movss	.LCPI5_1(%rip), %xmm1   # xmm1 = mem[0],zero,zero,zero
	movl	$24, %esi
	callq	_ZN15uniform_randgenIfEC2Effj
.Ltmp209:
	jmp	.LBB5_2
.LBB5_2:                                # %invoke.cont2
	movq	-96(%rbp), %rax
	movq	%rax, -128(%rbp)
	movups	-112(%rbp), %xmm0
	movaps	%xmm0, -144(%rbp)
.Ltmp210:
	movq	-128(%rbp), %rax
	movq	%rsp, %rcx
	movq	%rax, 16(%rcx)
	movaps	-144(%rbp), %xmm0
	movups	%xmm0, (%rcx)
	leaq	-48(%rbp), %rsi
	movq	-152(%rbp), %rdi        # 8-byte Reload
	callq	_ZN6TensorIfEC2I15uniform_randgenIfEEERKSt6vectorIiSaIiEET_
.Ltmp211:
	jmp	.LBB5_3
.LBB5_3:                                # %invoke.cont4
	leaq	-48(%rbp), %rdi
	callq	_ZNSt6vectorIiSaIiEED2Ev
	movq	-160(%rbp), %rax        # 8-byte Reload
	addq	$192, %rsp
	popq	%rbp
	.cfi_def_cfa %rsp, 8
	retq
.LBB5_4:                                # %lpad
	.cfi_def_cfa %rbp, 16
.Ltmp207:
	movl	%edx, %ecx
	movq	%rax, -80(%rbp)
	movl	%ecx, -84(%rbp)
	leaq	-72(%rbp), %rdi
	callq	_ZNSaIiED2Ev
	jmp	.LBB5_6
.LBB5_5:                                # %lpad1
.Ltmp212:
	movl	%edx, %ecx
	movq	%rax, -80(%rbp)
	movl	%ecx, -84(%rbp)
	leaq	-48(%rbp), %rdi
	callq	_ZNSt6vectorIiSaIiEED2Ev
.LBB5_6:                                # %eh.resume
	movq	-80(%rbp), %rdi
	callq	_Unwind_Resume
.Lfunc_end5:
	.size	_Z18make_random_tensorIfE6TensorIT_ESt16initializer_listIiEj, .Lfunc_end5-_Z18make_random_tensorIfE6TensorIT_ESt16initializer_listIiEj
	.cfi_endproc
	.section	.gcc_except_table,"a",@progbits
	.p2align	2
GCC_except_table5:
.Lexception2:
	.byte	255                     # @LPStart Encoding = omit
	.byte	255                     # @TType Encoding = omit
	.byte	1                       # Call site Encoding = uleb128
	.uleb128 .Lcst_end2-.Lcst_begin2
.Lcst_begin2:
	.uleb128 .Ltmp205-.Lfunc_begin2 # >> Call Site 1 <<
	.uleb128 .Ltmp206-.Ltmp205      #   Call between .Ltmp205 and .Ltmp206
	.uleb128 .Ltmp207-.Lfunc_begin2 #     jumps to .Ltmp207
	.byte	0                       #   On action: cleanup
	.uleb128 .Ltmp208-.Lfunc_begin2 # >> Call Site 2 <<
	.uleb128 .Ltmp211-.Ltmp208      #   Call between .Ltmp208 and .Ltmp211
	.uleb128 .Ltmp212-.Lfunc_begin2 #     jumps to .Ltmp212
	.byte	0                       #   On action: cleanup
	.uleb128 .Ltmp211-.Lfunc_begin2 # >> Call Site 3 <<
	.uleb128 .Lfunc_end5-.Ltmp211   #   Call between .Ltmp211 and .Lfunc_end5
	.byte	0                       #     has no landing pad
	.byte	0                       #   On action: cleanup
.Lcst_end2:
	.p2align	2
                                        # -- End function
	.section	.text._ZN6TensorIfEC2ERKSt6vectorIiSaIiEE,"axG",@progbits,_ZN6TensorIfEC2ERKSt6vectorIiSaIiEE,comdat
	.weak	_ZN6TensorIfEC2ERKSt6vectorIiSaIiEE # -- Begin function _ZN6TensorIfEC2ERKSt6vectorIiSaIiEE
	.p2align	4, 0x90
	.type	_ZN6TensorIfEC2ERKSt6vectorIiSaIiEE,@function
_ZN6TensorIfEC2ERKSt6vectorIiSaIiEE:    # @_ZN6TensorIfEC2ERKSt6vectorIiSaIiEE
	.cfi_startproc
# %bb.0:                                # %entry
	pushq	%rbp
	.cfi_def_cfa_offset 16
	.cfi_offset %rbp, -16
	movq	%rsp, %rbp
	.cfi_def_cfa_register %rbp
	subq	$32, %rsp
	movq	%rdi, -8(%rbp)
	movq	%rsi, -16(%rbp)
	movq	-8(%rbp), %rdi
	movq	-16(%rbp), %rsi
	movq	%rdi, -24(%rbp)         # 8-byte Spill
	movq	%rsi, %rdi
	callq	_ZNKSt6vectorIiSaIiEE4dataEv
	movq	-16(%rbp), %rdi
	movq	%rax, -32(%rbp)         # 8-byte Spill
	callq	_ZNKSt6vectorIiSaIiEE4sizeEv
	movq	-24(%rbp), %rdi         # 8-byte Reload
	movq	-32(%rbp), %rsi         # 8-byte Reload
	movq	%rax, %rdx
	callq	_ZN6TensorIfEC2EPKim
	addq	$32, %rsp
	popq	%rbp
	.cfi_def_cfa %rsp, 8
	retq
.Lfunc_end6:
	.size	_ZN6TensorIfEC2ERKSt6vectorIiSaIiEE, .Lfunc_end6-_ZN6TensorIfEC2ERKSt6vectorIiSaIiEE
	.cfi_endproc
                                        # -- End function
	.section	.text._ZN6TensorIfE8as_tspanILi2EEE5TSpanIXT_EfEv,"axG",@progbits,_ZN6TensorIfE8as_tspanILi2EEE5TSpanIXT_EfEv,comdat
	.weak	_ZN6TensorIfE8as_tspanILi2EEE5TSpanIXT_EfEv # -- Begin function _ZN6TensorIfE8as_tspanILi2EEE5TSpanIXT_EfEv
	.p2align	4, 0x90
	.type	_ZN6TensorIfE8as_tspanILi2EEE5TSpanIXT_EfEv,@function
_ZN6TensorIfE8as_tspanILi2EEE5TSpanIXT_EfEv: # @_ZN6TensorIfE8as_tspanILi2EEE5TSpanIXT_EfEv
	.cfi_startproc
# %bb.0:                                # %entry
	pushq	%rbp
	.cfi_def_cfa_offset 16
	.cfi_offset %rbp, -16
	movq	%rsp, %rbp
	.cfi_def_cfa_register %rbp
	subq	$16, %rsp
	movq	%rdi, %rax
	movq	%rsi, -8(%rbp)
	movq	-8(%rbp), %rsi
	movq	%rax, -16(%rbp)         # 8-byte Spill
	callq	_ZNK6TensorIfEcv5TSpanIXT_EfEILi2EEEv
	movq	-16(%rbp), %rax         # 8-byte Reload
	addq	$16, %rsp
	popq	%rbp
	.cfi_def_cfa %rsp, 8
	retq
.Lfunc_end7:
	.size	_ZN6TensorIfE8as_tspanILi2EEE5TSpanIXT_EfEv, .Lfunc_end7-_ZN6TensorIfE8as_tspanILi2EEE5TSpanIXT_EfEv
	.cfi_endproc
                                        # -- End function
	.text
	.p2align	4, 0x90         # -- Begin function _Z7time_fnIZ4mainE3$_0JEEviT_DpT0_
	.type	_Z7time_fnIZ4mainE3$_0JEEviT_DpT0_,@function
_Z7time_fnIZ4mainE3$_0JEEviT_DpT0_:     # @"_Z7time_fnIZ4mainE3$_0JEEviT_DpT0_"
	.cfi_startproc
# %bb.0:                                # %entry
	pushq	%rbp
	.cfi_def_cfa_offset 16
	.cfi_offset %rbp, -16
	movq	%rsp, %rbp
	.cfi_def_cfa_register %rbp
	subq	$80, %rsp
	movl	%edi, -4(%rbp)
	movq	%rsi, -64(%rbp)         # 8-byte Spill
	callq	_ZNSt6chrono3_V212system_clock3nowEv
	movq	%rax, -16(%rbp)
	movl	$0, -20(%rbp)
.LBB8_1:                                # %for.cond
                                        # =>This Inner Loop Header: Depth=1
	movl	-20(%rbp), %eax
	cmpl	-4(%rbp), %eax
	jge	.LBB8_4
# %bb.2:                                # %for.body
                                        #   in Loop: Header=BB8_1 Depth=1
	movq	-64(%rbp), %rdi         # 8-byte Reload
	callq	_ZZ4mainENK3$_0clEv
# %bb.3:                                # %for.inc
                                        #   in Loop: Header=BB8_1 Depth=1
	movl	-20(%rbp), %eax
	addl	$1, %eax
	movl	%eax, -20(%rbp)
	jmp	.LBB8_1
.LBB8_4:                                # %for.end
	callq	_ZNSt6chrono3_V212system_clock3nowEv
	movq	%rax, -32(%rbp)
	leaq	-32(%rbp), %rdi
	leaq	-16(%rbp), %rsi
	callq	_ZNSt6chronomiINS_3_V212system_clockENS_8durationIlSt5ratioILl1ELl1000000000EEEES6_EENSt11common_typeIJT0_T1_EE4typeERKNS_10time_pointIT_S8_EERKNSC_ISD_S9_EE
	movq	%rax, -56(%rbp)
	leaq	-56(%rbp), %rdi
	callq	_ZNSt6chrono13duration_castINS_8durationIlSt5ratioILl1ELl1000EEEElS2_ILl1ELl1000000000EEEENSt9enable_ifIXsr13__is_durationIT_EE5valueES7_E4typeERKNS1_IT0_T1_EE
	movq	%rax, -48(%rbp)
	leaq	-48(%rbp), %rdi
	callq	_ZNKSt6chrono8durationIlSt5ratioILl1ELl1000EEE5countEv
	movq	%rax, -40(%rbp)
	movl	-4(%rbp), %esi
	movabsq	$_ZSt4cout, %rdi
	callq	_ZNSolsEi
	movq	%rax, %rdi
	movabsq	$.L.str.11, %rsi
	callq	_ZStlsISt11char_traitsIcEERSt13basic_ostreamIcT_ES5_PKc
	movq	-40(%rbp), %rsi
	movq	%rax, %rdi
	callq	_ZNSolsEl
	movq	%rax, %rdi
	movabsq	$.L.str.12, %rsi
	callq	_ZStlsISt11char_traitsIcEERSt13basic_ostreamIcT_ES5_PKc
	movq	%rax, %rdi
	movabsq	$_ZSt4endlIcSt11char_traitsIcEERSt13basic_ostreamIT_T0_ES6_, %rsi
	callq	_ZNSolsEPFRSoS_E
	movq	%rax, -72(%rbp)         # 8-byte Spill
	addq	$80, %rsp
	popq	%rbp
	.cfi_def_cfa %rsp, 8
	retq
.Lfunc_end8:
	.size	_Z7time_fnIZ4mainE3$_0JEEviT_DpT0_, .Lfunc_end8-_Z7time_fnIZ4mainE3$_0JEEviT_DpT0_
	.cfi_endproc
                                        # -- End function
	.section	.text._ZN5TSpanILi2EfEC2ERKS0_,"axG",@progbits,_ZN5TSpanILi2EfEC2ERKS0_,comdat
	.weak	_ZN5TSpanILi2EfEC2ERKS0_ # -- Begin function _ZN5TSpanILi2EfEC2ERKS0_
	.p2align	4, 0x90
	.type	_ZN5TSpanILi2EfEC2ERKS0_,@function
_ZN5TSpanILi2EfEC2ERKS0_:               # @_ZN5TSpanILi2EfEC2ERKS0_
	.cfi_startproc
# %bb.0:                                # %entry
	pushq	%rbp
	.cfi_def_cfa_offset 16
	.cfi_offset %rbp, -16
	movq	%rsp, %rbp
	.cfi_def_cfa_register %rbp
	subq	$16, %rsp
	movq	%rdi, -8(%rbp)
	movq	%rsi, -16(%rbp)
	movq	-8(%rbp), %rdi
	movq	-16(%rbp), %rsi
	movq	(%rsi), %rsi
	movq	-16(%rbp), %rax
	movq	8(%rax), %rdx
	movq	-16(%rbp), %rax
	movq	16(%rax), %rcx
	movq	-16(%rbp), %rax
	movq	24(%rax), %r8
	callq	_ZN5TSpanILi2EfEC2EPKfPKiS4_P11RCTSpanData
	addq	$16, %rsp
	popq	%rbp
	.cfi_def_cfa %rsp, 8
	retq
.Lfunc_end9:
	.size	_ZN5TSpanILi2EfEC2ERKS0_, .Lfunc_end9-_ZN5TSpanILi2EfEC2ERKS0_
	.cfi_endproc
                                        # -- End function
	.section	.text._ZN5TSpanILi2EfED2Ev,"axG",@progbits,_ZN5TSpanILi2EfED2Ev,comdat
	.weak	_ZN5TSpanILi2EfED2Ev    # -- Begin function _ZN5TSpanILi2EfED2Ev
	.p2align	4, 0x90
	.type	_ZN5TSpanILi2EfED2Ev,@function
_ZN5TSpanILi2EfED2Ev:                   # @_ZN5TSpanILi2EfED2Ev
.Lfunc_begin3:
	.cfi_startproc
	.cfi_personality 3, __gxx_personality_v0
	.cfi_lsda 3, .Lexception3
# %bb.0:                                # %entry
	pushq	%rbp
	.cfi_def_cfa_offset 16
	.cfi_offset %rbp, -16
	movq	%rsp, %rbp
	.cfi_def_cfa_register %rbp
	subq	$32, %rsp
	movq	%rdi, -8(%rbp)
	movq	-8(%rbp), %rdi
	cmpq	$0, 24(%rdi)
	movq	%rdi, -16(%rbp)         # 8-byte Spill
	je	.LBB10_3
# %bb.1:                                # %if.then
	movq	-16(%rbp), %rax         # 8-byte Reload
	movq	24(%rax), %rdi
.Ltmp213:
	callq	_ZN11RCTSpanData5derefEv
.Ltmp214:
	jmp	.LBB10_2
.LBB10_2:                               # %invoke.cont
	jmp	.LBB10_3
.LBB10_3:                               # %if.end
	addq	$32, %rsp
	popq	%rbp
	.cfi_def_cfa %rsp, 8
	retq
.LBB10_4:                               # %terminate.lpad
	.cfi_def_cfa %rbp, 16
.Ltmp215:
	movl	%edx, %ecx
	movq	%rax, %rdi
	movl	%ecx, -20(%rbp)         # 4-byte Spill
	callq	__clang_call_terminate
.Lfunc_end10:
	.size	_ZN5TSpanILi2EfED2Ev, .Lfunc_end10-_ZN5TSpanILi2EfED2Ev
	.cfi_endproc
	.section	.gcc_except_table,"a",@progbits
	.p2align	2
GCC_except_table10:
.Lexception3:
	.byte	255                     # @LPStart Encoding = omit
	.byte	3                       # @TType Encoding = udata4
	.uleb128 .Lttbase0-.Lttbaseref0
.Lttbaseref0:
	.byte	1                       # Call site Encoding = uleb128
	.uleb128 .Lcst_end3-.Lcst_begin3
.Lcst_begin3:
	.uleb128 .Ltmp213-.Lfunc_begin3 # >> Call Site 1 <<
	.uleb128 .Ltmp214-.Ltmp213      #   Call between .Ltmp213 and .Ltmp214
	.uleb128 .Ltmp215-.Lfunc_begin3 #     jumps to .Ltmp215
	.byte	1                       #   On action: 1
.Lcst_end3:
	.byte	1                       # >> Action Record 1 <<
                                        #   Catch TypeInfo 1
	.byte	0                       #   No further actions
	.p2align	2
                                        # >> Catch TypeInfos <<
	.long	0                       # TypeInfo 1
.Lttbase0:
	.p2align	2
                                        # -- End function
	.text
	.p2align	4, 0x90         # -- Begin function _ZZ4mainEN3$_0D2Ev
	.type	_ZZ4mainEN3$_0D2Ev,@function
_ZZ4mainEN3$_0D2Ev:                     # @"_ZZ4mainEN3$_0D2Ev"
	.cfi_startproc
# %bb.0:                                # %entry
	pushq	%rbp
	.cfi_def_cfa_offset 16
	.cfi_offset %rbp, -16
	movq	%rsp, %rbp
	.cfi_def_cfa_register %rbp
	subq	$16, %rsp
	movq	%rdi, -8(%rbp)
	movq	-8(%rbp), %rdi
	movq	%rdi, %rax
	addq	$64, %rax
	movq	%rdi, -16(%rbp)         # 8-byte Spill
	movq	%rax, %rdi
	callq	_ZN5TSpanILi2EfED2Ev
	movq	-16(%rbp), %rax         # 8-byte Reload
	addq	$32, %rax
	movq	%rax, %rdi
	callq	_ZN5TSpanILi2EfED2Ev
	movq	-16(%rbp), %rdi         # 8-byte Reload
	callq	_ZN5TSpanILi2EfED2Ev
	addq	$16, %rsp
	popq	%rbp
	.cfi_def_cfa %rsp, 8
	retq
.Lfunc_end11:
	.size	_ZZ4mainEN3$_0D2Ev, .Lfunc_end11-_ZZ4mainEN3$_0D2Ev
	.cfi_endproc
                                        # -- End function
	.p2align	4, 0x90         # -- Begin function _Z7time_fnIZ4mainE3$_1JEEviT_DpT0_
	.type	_Z7time_fnIZ4mainE3$_1JEEviT_DpT0_,@function
_Z7time_fnIZ4mainE3$_1JEEviT_DpT0_:     # @"_Z7time_fnIZ4mainE3$_1JEEviT_DpT0_"
	.cfi_startproc
# %bb.0:                                # %entry
	pushq	%rbp
	.cfi_def_cfa_offset 16
	.cfi_offset %rbp, -16
	movq	%rsp, %rbp
	.cfi_def_cfa_register %rbp
	subq	$80, %rsp
	movl	%edi, -4(%rbp)
	movq	%rsi, -64(%rbp)         # 8-byte Spill
	callq	_ZNSt6chrono3_V212system_clock3nowEv
	movq	%rax, -16(%rbp)
	movl	$0, -20(%rbp)
.LBB12_1:                               # %for.cond
                                        # =>This Inner Loop Header: Depth=1
	movl	-20(%rbp), %eax
	cmpl	-4(%rbp), %eax
	jge	.LBB12_4
# %bb.2:                                # %for.body
                                        #   in Loop: Header=BB12_1 Depth=1
	movq	-64(%rbp), %rdi         # 8-byte Reload
	callq	_ZZ4mainENK3$_1clEv
# %bb.3:                                # %for.inc
                                        #   in Loop: Header=BB12_1 Depth=1
	movl	-20(%rbp), %eax
	addl	$1, %eax
	movl	%eax, -20(%rbp)
	jmp	.LBB12_1
.LBB12_4:                               # %for.end
	callq	_ZNSt6chrono3_V212system_clock3nowEv
	movq	%rax, -32(%rbp)
	leaq	-32(%rbp), %rdi
	leaq	-16(%rbp), %rsi
	callq	_ZNSt6chronomiINS_3_V212system_clockENS_8durationIlSt5ratioILl1ELl1000000000EEEES6_EENSt11common_typeIJT0_T1_EE4typeERKNS_10time_pointIT_S8_EERKNSC_ISD_S9_EE
	movq	%rax, -56(%rbp)
	leaq	-56(%rbp), %rdi
	callq	_ZNSt6chrono13duration_castINS_8durationIlSt5ratioILl1ELl1000EEEElS2_ILl1ELl1000000000EEEENSt9enable_ifIXsr13__is_durationIT_EE5valueES7_E4typeERKNS1_IT0_T1_EE
	movq	%rax, -48(%rbp)
	leaq	-48(%rbp), %rdi
	callq	_ZNKSt6chrono8durationIlSt5ratioILl1ELl1000EEE5countEv
	movq	%rax, -40(%rbp)
	movl	-4(%rbp), %esi
	movabsq	$_ZSt4cout, %rdi
	callq	_ZNSolsEi
	movq	%rax, %rdi
	movabsq	$.L.str.11, %rsi
	callq	_ZStlsISt11char_traitsIcEERSt13basic_ostreamIcT_ES5_PKc
	movq	-40(%rbp), %rsi
	movq	%rax, %rdi
	callq	_ZNSolsEl
	movq	%rax, %rdi
	movabsq	$.L.str.12, %rsi
	callq	_ZStlsISt11char_traitsIcEERSt13basic_ostreamIcT_ES5_PKc
	movq	%rax, %rdi
	movabsq	$_ZSt4endlIcSt11char_traitsIcEERSt13basic_ostreamIT_T0_ES6_, %rsi
	callq	_ZNSolsEPFRSoS_E
	movq	%rax, -72(%rbp)         # 8-byte Spill
	addq	$80, %rsp
	popq	%rbp
	.cfi_def_cfa %rsp, 8
	retq
.Lfunc_end12:
	.size	_Z7time_fnIZ4mainE3$_1JEEviT_DpT0_, .Lfunc_end12-_Z7time_fnIZ4mainE3$_1JEEviT_DpT0_
	.cfi_endproc
                                        # -- End function
	.p2align	4, 0x90         # -- Begin function _ZZ4mainEN3$_1D2Ev
	.type	_ZZ4mainEN3$_1D2Ev,@function
_ZZ4mainEN3$_1D2Ev:                     # @"_ZZ4mainEN3$_1D2Ev"
	.cfi_startproc
# %bb.0:                                # %entry
	pushq	%rbp
	.cfi_def_cfa_offset 16
	.cfi_offset %rbp, -16
	movq	%rsp, %rbp
	.cfi_def_cfa_register %rbp
	subq	$16, %rsp
	movq	%rdi, -8(%rbp)
	movq	-8(%rbp), %rdi
	movq	%rdi, %rax
	addq	$64, %rax
	movq	%rdi, -16(%rbp)         # 8-byte Spill
	movq	%rax, %rdi
	callq	_ZN5TSpanILi2EfED2Ev
	movq	-16(%rbp), %rax         # 8-byte Reload
	addq	$32, %rax
	movq	%rax, %rdi
	callq	_ZN5TSpanILi2EfED2Ev
	movq	-16(%rbp), %rdi         # 8-byte Reload
	callq	_ZN5TSpanILi2EfED2Ev
	addq	$16, %rsp
	popq	%rbp
	.cfi_def_cfa %rsp, 8
	retq
.Lfunc_end13:
	.size	_ZZ4mainEN3$_1D2Ev, .Lfunc_end13-_ZZ4mainEN3$_1D2Ev
	.cfi_endproc
                                        # -- End function
	.section	.text._ZNK5TSpanILi2EfEeqERKS0_,"axG",@progbits,_ZNK5TSpanILi2EfEeqERKS0_,comdat
	.weak	_ZNK5TSpanILi2EfEeqERKS0_ # -- Begin function _ZNK5TSpanILi2EfEeqERKS0_
	.p2align	4, 0x90
	.type	_ZNK5TSpanILi2EfEeqERKS0_,@function
_ZNK5TSpanILi2EfEeqERKS0_:              # @_ZNK5TSpanILi2EfEeqERKS0_
.Lfunc_begin4:
	.cfi_startproc
	.cfi_personality 3, __gxx_personality_v0
	.cfi_lsda 3, .Lexception4
# %bb.0:                                # %entry
	pushq	%rbp
	.cfi_def_cfa_offset 16
	.cfi_offset %rbp, -16
	movq	%rsp, %rbp
	.cfi_def_cfa_register %rbp
	subq	$128, %rsp
	movq	%rdi, -16(%rbp)
	movq	%rsi, -24(%rbp)
	movq	-16(%rbp), %rsi
	movq	8(%rsi), %rdi
	movl	(%rdi), %eax
	movq	-24(%rbp), %rdi
	movq	8(%rdi), %rdi
	cmpl	(%rdi), %eax
	movq	%rsi, -120(%rbp)        # 8-byte Spill
	je	.LBB14_2
# %bb.1:                                # %if.then
	movb	$0, -1(%rbp)
	jmp	.LBB14_14
.LBB14_2:                               # %if.end
	movl	$0, -28(%rbp)
.LBB14_3:                               # %for.cond
                                        # =>This Inner Loop Header: Depth=1
	movl	-28(%rbp), %eax
	movq	-120(%rbp), %rcx        # 8-byte Reload
	movq	8(%rcx), %rdx
	cmpl	(%rdx), %eax
	jge	.LBB14_13
# %bb.4:                                # %for.body
                                        #   in Loop: Header=BB14_3 Depth=1
	movl	-28(%rbp), %edx
	leaq	-64(%rbp), %rdi
	movq	-120(%rbp), %rsi        # 8-byte Reload
	callq	_ZNK5TSpanILi2EfEixILb0EEEKNSt9enable_ifIXntT_ES_ILi1EfEE4typeEi
	movq	-24(%rbp), %rsi
	movl	-28(%rbp), %edx
.Ltmp216:
	leaq	-96(%rbp), %rdi
	callq	_ZNK5TSpanILi2EfEixILb0EEEKNSt9enable_ifIXntT_ES_ILi1EfEE4typeEi
.Ltmp217:
	jmp	.LBB14_5
.LBB14_5:                               # %invoke.cont
                                        #   in Loop: Header=BB14_3 Depth=1
.Ltmp219:
	leaq	-64(%rbp), %rdi
	leaq	-96(%rbp), %rsi
	callq	_ZL7compareI5TSpanILi1EfEEbRKT_S4_
.Ltmp220:
	movb	%al, -121(%rbp)         # 1-byte Spill
	jmp	.LBB14_6
.LBB14_6:                               # %invoke.cont9
                                        #   in Loop: Header=BB14_3 Depth=1
	movb	-121(%rbp), %al         # 1-byte Reload
	xorb	$-1, %al
	leaq	-96(%rbp), %rdi
	movb	%al, -122(%rbp)         # 1-byte Spill
	callq	_ZN5TSpanILi1EfED2Ev
	leaq	-64(%rbp), %rdi
	callq	_ZN5TSpanILi1EfED2Ev
	movb	-122(%rbp), %al         # 1-byte Reload
	testb	$1, %al
	jne	.LBB14_7
	jmp	.LBB14_11
.LBB14_7:                               # %if.then10
	movb	$0, -1(%rbp)
	jmp	.LBB14_14
.LBB14_8:                               # %lpad
.Ltmp218:
	movl	%edx, %ecx
	movq	%rax, -104(%rbp)
	movl	%ecx, -108(%rbp)
	jmp	.LBB14_10
.LBB14_9:                               # %lpad8
.Ltmp221:
	movl	%edx, %ecx
	movq	%rax, -104(%rbp)
	movl	%ecx, -108(%rbp)
	leaq	-96(%rbp), %rdi
	callq	_ZN5TSpanILi1EfED2Ev
.LBB14_10:                              # %ehcleanup
	leaq	-64(%rbp), %rdi
	callq	_ZN5TSpanILi1EfED2Ev
	jmp	.LBB14_15
.LBB14_11:                              # %if.end11
                                        #   in Loop: Header=BB14_3 Depth=1
	jmp	.LBB14_12
.LBB14_12:                              # %for.inc
                                        #   in Loop: Header=BB14_3 Depth=1
	movl	-28(%rbp), %eax
	addl	$1, %eax
	movl	%eax, -28(%rbp)
	jmp	.LBB14_3
.LBB14_13:                              # %for.end
	movb	$1, -1(%rbp)
.LBB14_14:                              # %return
	movb	-1(%rbp), %al
	andb	$1, %al
	movzbl	%al, %eax
	addq	$128, %rsp
	popq	%rbp
	.cfi_def_cfa %rsp, 8
	retq
.LBB14_15:                              # %eh.resume
	.cfi_def_cfa %rbp, 16
	movq	-104(%rbp), %rdi
	callq	_Unwind_Resume
.Lfunc_end14:
	.size	_ZNK5TSpanILi2EfEeqERKS0_, .Lfunc_end14-_ZNK5TSpanILi2EfEeqERKS0_
	.cfi_endproc
	.section	.gcc_except_table,"a",@progbits
	.p2align	2
GCC_except_table14:
.Lexception4:
	.byte	255                     # @LPStart Encoding = omit
	.byte	255                     # @TType Encoding = omit
	.byte	1                       # Call site Encoding = uleb128
	.uleb128 .Lcst_end4-.Lcst_begin4
.Lcst_begin4:
	.uleb128 .Lfunc_begin4-.Lfunc_begin4 # >> Call Site 1 <<
	.uleb128 .Ltmp216-.Lfunc_begin4 #   Call between .Lfunc_begin4 and .Ltmp216
	.byte	0                       #     has no landing pad
	.byte	0                       #   On action: cleanup
	.uleb128 .Ltmp216-.Lfunc_begin4 # >> Call Site 2 <<
	.uleb128 .Ltmp217-.Ltmp216      #   Call between .Ltmp216 and .Ltmp217
	.uleb128 .Ltmp218-.Lfunc_begin4 #     jumps to .Ltmp218
	.byte	0                       #   On action: cleanup
	.uleb128 .Ltmp219-.Lfunc_begin4 # >> Call Site 3 <<
	.uleb128 .Ltmp220-.Ltmp219      #   Call between .Ltmp219 and .Ltmp220
	.uleb128 .Ltmp221-.Lfunc_begin4 #     jumps to .Ltmp221
	.byte	0                       #   On action: cleanup
	.uleb128 .Ltmp220-.Lfunc_begin4 # >> Call Site 4 <<
	.uleb128 .Lfunc_end14-.Ltmp220  #   Call between .Ltmp220 and .Lfunc_end14
	.byte	0                       #     has no landing pad
	.byte	0                       #   On action: cleanup
.Lcst_end4:
	.p2align	2
                                        # -- End function
	.section	.text._ZN6TensorIfEaSEOS0_,"axG",@progbits,_ZN6TensorIfEaSEOS0_,comdat
	.weak	_ZN6TensorIfEaSEOS0_    # -- Begin function _ZN6TensorIfEaSEOS0_
	.p2align	4, 0x90
	.type	_ZN6TensorIfEaSEOS0_,@function
_ZN6TensorIfEaSEOS0_:                   # @_ZN6TensorIfEaSEOS0_
	.cfi_startproc
# %bb.0:                                # %entry
	pushq	%rbp
	.cfi_def_cfa_offset 16
	.cfi_offset %rbp, -16
	movq	%rsp, %rbp
	.cfi_def_cfa_register %rbp
	subq	$80, %rsp
	movq	%rdi, -8(%rbp)
	movq	%rsi, -16(%rbp)
	movq	-8(%rbp), %rsi
	movq	-16(%rbp), %rdi
	movq	%rdi, -24(%rbp)         # 8-byte Spill
	movq	%rsi, %rdi
	movq	-24(%rbp), %rax         # 8-byte Reload
	movq	%rsi, -32(%rbp)         # 8-byte Spill
	movq	%rax, %rsi
	callq	_ZNSt6vectorIfSaIfEEaSEOS1_
	movq	-32(%rbp), %rsi         # 8-byte Reload
	addq	$24, %rsi
	movq	-16(%rbp), %rdi
	addq	$24, %rdi
	movq	%rdi, -40(%rbp)         # 8-byte Spill
	movq	%rsi, %rdi
	movq	-40(%rbp), %rsi         # 8-byte Reload
	movq	%rax, -48(%rbp)         # 8-byte Spill
	callq	_ZNSt6vectorIiSaIiEEaSEOS1_
	movq	-32(%rbp), %rsi         # 8-byte Reload
	addq	$48, %rsi
	movq	-16(%rbp), %rdi
	addq	$48, %rdi
	movq	%rdi, -56(%rbp)         # 8-byte Spill
	movq	%rsi, %rdi
	movq	-56(%rbp), %rsi         # 8-byte Reload
	movq	%rax, -64(%rbp)         # 8-byte Spill
	callq	_ZNSt6vectorIiSaIiEEaSEOS1_
	movq	-16(%rbp), %rsi
	movq	72(%rsi), %rsi
	movq	-32(%rbp), %rdi         # 8-byte Reload
	movq	%rsi, 72(%rdi)
	movq	%rax, -72(%rbp)         # 8-byte Spill
	movq	%rdi, %rax
	addq	$80, %rsp
	popq	%rbp
	.cfi_def_cfa %rsp, 8
	retq
.Lfunc_end15:
	.size	_ZN6TensorIfEaSEOS0_, .Lfunc_end15-_ZN6TensorIfEaSEOS0_
	.cfi_endproc
                                        # -- End function
	.section	.text._ZN6TensorIfED2Ev,"axG",@progbits,_ZN6TensorIfED2Ev,comdat
	.weak	_ZN6TensorIfED2Ev       # -- Begin function _ZN6TensorIfED2Ev
	.p2align	4, 0x90
	.type	_ZN6TensorIfED2Ev,@function
_ZN6TensorIfED2Ev:                      # @_ZN6TensorIfED2Ev
	.cfi_startproc
# %bb.0:                                # %entry
	pushq	%rbp
	.cfi_def_cfa_offset 16
	.cfi_offset %rbp, -16
	movq	%rsp, %rbp
	.cfi_def_cfa_register %rbp
	subq	$16, %rsp
	movq	%rdi, -8(%rbp)
	movq	-8(%rbp), %rdi
	movq	%rdi, %rax
	addq	$48, %rax
	movq	%rdi, -16(%rbp)         # 8-byte Spill
	movq	%rax, %rdi
	callq	_ZNSt6vectorIiSaIiEED2Ev
	movq	-16(%rbp), %rax         # 8-byte Reload
	addq	$24, %rax
	movq	%rax, %rdi
	callq	_ZNSt6vectorIiSaIiEED2Ev
	movq	-16(%rbp), %rdi         # 8-byte Reload
	callq	_ZNSt6vectorIfSaIfEED2Ev
	addq	$16, %rsp
	popq	%rbp
	.cfi_def_cfa %rsp, 8
	retq
.Lfunc_end16:
	.size	_ZN6TensorIfED2Ev, .Lfunc_end16-_ZN6TensorIfED2Ev
	.cfi_endproc
                                        # -- End function
	.section	.text._ZN5TSpanILi2EfEaSEOS0_,"axG",@progbits,_ZN5TSpanILi2EfEaSEOS0_,comdat
	.weak	_ZN5TSpanILi2EfEaSEOS0_ # -- Begin function _ZN5TSpanILi2EfEaSEOS0_
	.p2align	4, 0x90
	.type	_ZN5TSpanILi2EfEaSEOS0_,@function
_ZN5TSpanILi2EfEaSEOS0_:                # @_ZN5TSpanILi2EfEaSEOS0_
	.cfi_startproc
# %bb.0:                                # %entry
	pushq	%rbp
	.cfi_def_cfa_offset 16
	.cfi_offset %rbp, -16
	movq	%rsp, %rbp
	.cfi_def_cfa_register %rbp
	subq	$32, %rsp
	movq	%rdi, -8(%rbp)
	movq	%rsi, -16(%rbp)
	movq	-8(%rbp), %rsi
	cmpq	-16(%rbp), %rsi
	movq	%rsi, -24(%rbp)         # 8-byte Spill
	je	.LBB17_4
# %bb.1:                                # %if.then
	movq	-24(%rbp), %rax         # 8-byte Reload
	cmpq	$0, 24(%rax)
	je	.LBB17_3
# %bb.2:                                # %if.then2
	movq	-24(%rbp), %rax         # 8-byte Reload
	movq	24(%rax), %rdi
	callq	_ZN11RCTSpanData5derefEv
.LBB17_3:                               # %if.end
	movq	-16(%rbp), %rax
	movq	(%rax), %rax
	movq	-24(%rbp), %rcx         # 8-byte Reload
	movq	%rax, (%rcx)
	movq	-16(%rbp), %rax
	movq	8(%rax), %rax
	movq	%rax, 8(%rcx)
	movq	-16(%rbp), %rax
	movq	16(%rax), %rax
	movq	%rax, 16(%rcx)
	movq	-16(%rbp), %rax
	movq	24(%rax), %rax
	movq	%rax, 24(%rcx)
	movq	-16(%rbp), %rax
	movq	$0, (%rax)
	movq	-16(%rbp), %rax
	movq	$0, 8(%rax)
	movq	-16(%rbp), %rax
	movq	$0, 16(%rax)
	movq	-16(%rbp), %rax
	movq	$0, 24(%rax)
.LBB17_4:                               # %if.end13
	movq	-24(%rbp), %rax         # 8-byte Reload
	addq	$32, %rsp
	popq	%rbp
	.cfi_def_cfa %rsp, 8
	retq
.Lfunc_end17:
	.size	_ZN5TSpanILi2EfEaSEOS0_, .Lfunc_end17-_ZN5TSpanILi2EfEaSEOS0_
	.cfi_endproc
                                        # -- End function
	.text
	.p2align	4, 0x90         # -- Begin function _Z7time_fnIZ4mainE3$_2JEEviT_DpT0_
	.type	_Z7time_fnIZ4mainE3$_2JEEviT_DpT0_,@function
_Z7time_fnIZ4mainE3$_2JEEviT_DpT0_:     # @"_Z7time_fnIZ4mainE3$_2JEEviT_DpT0_"
	.cfi_startproc
# %bb.0:                                # %entry
	pushq	%rbp
	.cfi_def_cfa_offset 16
	.cfi_offset %rbp, -16
	movq	%rsp, %rbp
	.cfi_def_cfa_register %rbp
	subq	$80, %rsp
	movl	%edi, -4(%rbp)
	movq	%rsi, -64(%rbp)         # 8-byte Spill
	callq	_ZNSt6chrono3_V212system_clock3nowEv
	movq	%rax, -16(%rbp)
	movl	$0, -20(%rbp)
.LBB18_1:                               # %for.cond
                                        # =>This Inner Loop Header: Depth=1
	movl	-20(%rbp), %eax
	cmpl	-4(%rbp), %eax
	jge	.LBB18_4
# %bb.2:                                # %for.body
                                        #   in Loop: Header=BB18_1 Depth=1
	movq	-64(%rbp), %rdi         # 8-byte Reload
	callq	_ZZ4mainENK3$_2clEv
# %bb.3:                                # %for.inc
                                        #   in Loop: Header=BB18_1 Depth=1
	movl	-20(%rbp), %eax
	addl	$1, %eax
	movl	%eax, -20(%rbp)
	jmp	.LBB18_1
.LBB18_4:                               # %for.end
	callq	_ZNSt6chrono3_V212system_clock3nowEv
	movq	%rax, -32(%rbp)
	leaq	-32(%rbp), %rdi
	leaq	-16(%rbp), %rsi
	callq	_ZNSt6chronomiINS_3_V212system_clockENS_8durationIlSt5ratioILl1ELl1000000000EEEES6_EENSt11common_typeIJT0_T1_EE4typeERKNS_10time_pointIT_S8_EERKNSC_ISD_S9_EE
	movq	%rax, -56(%rbp)
	leaq	-56(%rbp), %rdi
	callq	_ZNSt6chrono13duration_castINS_8durationIlSt5ratioILl1ELl1000EEEElS2_ILl1ELl1000000000EEEENSt9enable_ifIXsr13__is_durationIT_EE5valueES7_E4typeERKNS1_IT0_T1_EE
	movq	%rax, -48(%rbp)
	leaq	-48(%rbp), %rdi
	callq	_ZNKSt6chrono8durationIlSt5ratioILl1ELl1000EEE5countEv
	movq	%rax, -40(%rbp)
	movl	-4(%rbp), %esi
	movabsq	$_ZSt4cout, %rdi
	callq	_ZNSolsEi
	movq	%rax, %rdi
	movabsq	$.L.str.11, %rsi
	callq	_ZStlsISt11char_traitsIcEERSt13basic_ostreamIcT_ES5_PKc
	movq	-40(%rbp), %rsi
	movq	%rax, %rdi
	callq	_ZNSolsEl
	movq	%rax, %rdi
	movabsq	$.L.str.12, %rsi
	callq	_ZStlsISt11char_traitsIcEERSt13basic_ostreamIcT_ES5_PKc
	movq	%rax, %rdi
	movabsq	$_ZSt4endlIcSt11char_traitsIcEERSt13basic_ostreamIT_T0_ES6_, %rsi
	callq	_ZNSolsEPFRSoS_E
	movq	%rax, -72(%rbp)         # 8-byte Spill
	addq	$80, %rsp
	popq	%rbp
	.cfi_def_cfa %rsp, 8
	retq
.Lfunc_end18:
	.size	_Z7time_fnIZ4mainE3$_2JEEviT_DpT0_, .Lfunc_end18-_Z7time_fnIZ4mainE3$_2JEEviT_DpT0_
	.cfi_endproc
                                        # -- End function
	.p2align	4, 0x90         # -- Begin function _ZZ4mainEN3$_2D2Ev
	.type	_ZZ4mainEN3$_2D2Ev,@function
_ZZ4mainEN3$_2D2Ev:                     # @"_ZZ4mainEN3$_2D2Ev"
	.cfi_startproc
# %bb.0:                                # %entry
	pushq	%rbp
	.cfi_def_cfa_offset 16
	.cfi_offset %rbp, -16
	movq	%rsp, %rbp
	.cfi_def_cfa_register %rbp
	subq	$16, %rsp
	movq	%rdi, -8(%rbp)
	movq	-8(%rbp), %rdi
	movq	%rdi, %rax
	addq	$64, %rax
	movq	%rdi, -16(%rbp)         # 8-byte Spill
	movq	%rax, %rdi
	callq	_ZN5TSpanILi2EfED2Ev
	movq	-16(%rbp), %rax         # 8-byte Reload
	addq	$32, %rax
	movq	%rax, %rdi
	callq	_ZN5TSpanILi2EfED2Ev
	movq	-16(%rbp), %rdi         # 8-byte Reload
	callq	_ZN5TSpanILi2EfED2Ev
	addq	$16, %rsp
	popq	%rbp
	.cfi_def_cfa %rsp, 8
	retq
.Lfunc_end19:
	.size	_ZZ4mainEN3$_2D2Ev, .Lfunc_end19-_ZZ4mainEN3$_2D2Ev
	.cfi_endproc
                                        # -- End function
	.p2align	4, 0x90         # -- Begin function _Z7time_fnIZ4mainE3$_3JEEviT_DpT0_
	.type	_Z7time_fnIZ4mainE3$_3JEEviT_DpT0_,@function
_Z7time_fnIZ4mainE3$_3JEEviT_DpT0_:     # @"_Z7time_fnIZ4mainE3$_3JEEviT_DpT0_"
	.cfi_startproc
# %bb.0:                                # %entry
	pushq	%rbp
	.cfi_def_cfa_offset 16
	.cfi_offset %rbp, -16
	movq	%rsp, %rbp
	.cfi_def_cfa_register %rbp
	subq	$80, %rsp
	movl	%edi, -4(%rbp)
	movq	%rsi, -64(%rbp)         # 8-byte Spill
	callq	_ZNSt6chrono3_V212system_clock3nowEv
	movq	%rax, -16(%rbp)
	movl	$0, -20(%rbp)
.LBB20_1:                               # %for.cond
                                        # =>This Inner Loop Header: Depth=1
	movl	-20(%rbp), %eax
	cmpl	-4(%rbp), %eax
	jge	.LBB20_4
# %bb.2:                                # %for.body
                                        #   in Loop: Header=BB20_1 Depth=1
	movq	-64(%rbp), %rdi         # 8-byte Reload
	callq	_ZZ4mainENK3$_3clEv
# %bb.3:                                # %for.inc
                                        #   in Loop: Header=BB20_1 Depth=1
	movl	-20(%rbp), %eax
	addl	$1, %eax
	movl	%eax, -20(%rbp)
	jmp	.LBB20_1
.LBB20_4:                               # %for.end
	callq	_ZNSt6chrono3_V212system_clock3nowEv
	movq	%rax, -32(%rbp)
	leaq	-32(%rbp), %rdi
	leaq	-16(%rbp), %rsi
	callq	_ZNSt6chronomiINS_3_V212system_clockENS_8durationIlSt5ratioILl1ELl1000000000EEEES6_EENSt11common_typeIJT0_T1_EE4typeERKNS_10time_pointIT_S8_EERKNSC_ISD_S9_EE
	movq	%rax, -56(%rbp)
	leaq	-56(%rbp), %rdi
	callq	_ZNSt6chrono13duration_castINS_8durationIlSt5ratioILl1ELl1000EEEElS2_ILl1ELl1000000000EEEENSt9enable_ifIXsr13__is_durationIT_EE5valueES7_E4typeERKNS1_IT0_T1_EE
	movq	%rax, -48(%rbp)
	leaq	-48(%rbp), %rdi
	callq	_ZNKSt6chrono8durationIlSt5ratioILl1ELl1000EEE5countEv
	movq	%rax, -40(%rbp)
	movl	-4(%rbp), %esi
	movabsq	$_ZSt4cout, %rdi
	callq	_ZNSolsEi
	movq	%rax, %rdi
	movabsq	$.L.str.11, %rsi
	callq	_ZStlsISt11char_traitsIcEERSt13basic_ostreamIcT_ES5_PKc
	movq	-40(%rbp), %rsi
	movq	%rax, %rdi
	callq	_ZNSolsEl
	movq	%rax, %rdi
	movabsq	$.L.str.12, %rsi
	callq	_ZStlsISt11char_traitsIcEERSt13basic_ostreamIcT_ES5_PKc
	movq	%rax, %rdi
	movabsq	$_ZSt4endlIcSt11char_traitsIcEERSt13basic_ostreamIT_T0_ES6_, %rsi
	callq	_ZNSolsEPFRSoS_E
	movq	%rax, -72(%rbp)         # 8-byte Spill
	addq	$80, %rsp
	popq	%rbp
	.cfi_def_cfa %rsp, 8
	retq
.Lfunc_end20:
	.size	_Z7time_fnIZ4mainE3$_3JEEviT_DpT0_, .Lfunc_end20-_Z7time_fnIZ4mainE3$_3JEEviT_DpT0_
	.cfi_endproc
                                        # -- End function
	.p2align	4, 0x90         # -- Begin function _ZZ4mainEN3$_3D2Ev
	.type	_ZZ4mainEN3$_3D2Ev,@function
_ZZ4mainEN3$_3D2Ev:                     # @"_ZZ4mainEN3$_3D2Ev"
	.cfi_startproc
# %bb.0:                                # %entry
	pushq	%rbp
	.cfi_def_cfa_offset 16
	.cfi_offset %rbp, -16
	movq	%rsp, %rbp
	.cfi_def_cfa_register %rbp
	subq	$16, %rsp
	movq	%rdi, -8(%rbp)
	movq	-8(%rbp), %rdi
	movq	%rdi, %rax
	addq	$64, %rax
	movq	%rdi, -16(%rbp)         # 8-byte Spill
	movq	%rax, %rdi
	callq	_ZN5TSpanILi2EfED2Ev
	movq	-16(%rbp), %rax         # 8-byte Reload
	addq	$32, %rax
	movq	%rax, %rdi
	callq	_ZN5TSpanILi2EfED2Ev
	movq	-16(%rbp), %rdi         # 8-byte Reload
	callq	_ZN5TSpanILi2EfED2Ev
	addq	$16, %rsp
	popq	%rbp
	.cfi_def_cfa %rsp, 8
	retq
.Lfunc_end21:
	.size	_ZZ4mainEN3$_3D2Ev, .Lfunc_end21-_ZZ4mainEN3$_3D2Ev
	.cfi_endproc
                                        # -- End function
	.p2align	4, 0x90         # -- Begin function _Z7time_fnIZ4mainE3$_4JEEviT_DpT0_
	.type	_Z7time_fnIZ4mainE3$_4JEEviT_DpT0_,@function
_Z7time_fnIZ4mainE3$_4JEEviT_DpT0_:     # @"_Z7time_fnIZ4mainE3$_4JEEviT_DpT0_"
	.cfi_startproc
# %bb.0:                                # %entry
	pushq	%rbp
	.cfi_def_cfa_offset 16
	.cfi_offset %rbp, -16
	movq	%rsp, %rbp
	.cfi_def_cfa_register %rbp
	subq	$80, %rsp
	movl	%edi, -4(%rbp)
	movq	%rsi, -64(%rbp)         # 8-byte Spill
	callq	_ZNSt6chrono3_V212system_clock3nowEv
	movq	%rax, -16(%rbp)
	movl	$0, -20(%rbp)
.LBB22_1:                               # %for.cond
                                        # =>This Inner Loop Header: Depth=1
	movl	-20(%rbp), %eax
	cmpl	-4(%rbp), %eax
	jge	.LBB22_4
# %bb.2:                                # %for.body
                                        #   in Loop: Header=BB22_1 Depth=1
	movq	-64(%rbp), %rdi         # 8-byte Reload
	callq	_ZZ4mainENK3$_4clEv
# %bb.3:                                # %for.inc
                                        #   in Loop: Header=BB22_1 Depth=1
	movl	-20(%rbp), %eax
	addl	$1, %eax
	movl	%eax, -20(%rbp)
	jmp	.LBB22_1
.LBB22_4:                               # %for.end
	callq	_ZNSt6chrono3_V212system_clock3nowEv
	movq	%rax, -32(%rbp)
	leaq	-32(%rbp), %rdi
	leaq	-16(%rbp), %rsi
	callq	_ZNSt6chronomiINS_3_V212system_clockENS_8durationIlSt5ratioILl1ELl1000000000EEEES6_EENSt11common_typeIJT0_T1_EE4typeERKNS_10time_pointIT_S8_EERKNSC_ISD_S9_EE
	movq	%rax, -56(%rbp)
	leaq	-56(%rbp), %rdi
	callq	_ZNSt6chrono13duration_castINS_8durationIlSt5ratioILl1ELl1000EEEElS2_ILl1ELl1000000000EEEENSt9enable_ifIXsr13__is_durationIT_EE5valueES7_E4typeERKNS1_IT0_T1_EE
	movq	%rax, -48(%rbp)
	leaq	-48(%rbp), %rdi
	callq	_ZNKSt6chrono8durationIlSt5ratioILl1ELl1000EEE5countEv
	movq	%rax, -40(%rbp)
	movl	-4(%rbp), %esi
	movabsq	$_ZSt4cout, %rdi
	callq	_ZNSolsEi
	movq	%rax, %rdi
	movabsq	$.L.str.11, %rsi
	callq	_ZStlsISt11char_traitsIcEERSt13basic_ostreamIcT_ES5_PKc
	movq	-40(%rbp), %rsi
	movq	%rax, %rdi
	callq	_ZNSolsEl
	movq	%rax, %rdi
	movabsq	$.L.str.12, %rsi
	callq	_ZStlsISt11char_traitsIcEERSt13basic_ostreamIcT_ES5_PKc
	movq	%rax, %rdi
	movabsq	$_ZSt4endlIcSt11char_traitsIcEERSt13basic_ostreamIT_T0_ES6_, %rsi
	callq	_ZNSolsEPFRSoS_E
	movq	%rax, -72(%rbp)         # 8-byte Spill
	addq	$80, %rsp
	popq	%rbp
	.cfi_def_cfa %rsp, 8
	retq
.Lfunc_end22:
	.size	_Z7time_fnIZ4mainE3$_4JEEviT_DpT0_, .Lfunc_end22-_Z7time_fnIZ4mainE3$_4JEEviT_DpT0_
	.cfi_endproc
                                        # -- End function
	.p2align	4, 0x90         # -- Begin function _ZZ4mainEN3$_4D2Ev
	.type	_ZZ4mainEN3$_4D2Ev,@function
_ZZ4mainEN3$_4D2Ev:                     # @"_ZZ4mainEN3$_4D2Ev"
	.cfi_startproc
# %bb.0:                                # %entry
	pushq	%rbp
	.cfi_def_cfa_offset 16
	.cfi_offset %rbp, -16
	movq	%rsp, %rbp
	.cfi_def_cfa_register %rbp
	subq	$16, %rsp
	movq	%rdi, -8(%rbp)
	movq	-8(%rbp), %rdi
	movq	%rdi, %rax
	addq	$64, %rax
	movq	%rdi, -16(%rbp)         # 8-byte Spill
	movq	%rax, %rdi
	callq	_ZN5TSpanILi2EfED2Ev
	movq	-16(%rbp), %rax         # 8-byte Reload
	addq	$32, %rax
	movq	%rax, %rdi
	callq	_ZN5TSpanILi2EfED2Ev
	movq	-16(%rbp), %rdi         # 8-byte Reload
	callq	_ZN5TSpanILi2EfED2Ev
	addq	$16, %rsp
	popq	%rbp
	.cfi_def_cfa %rsp, 8
	retq
.Lfunc_end23:
	.size	_ZZ4mainEN3$_4D2Ev, .Lfunc_end23-_ZZ4mainEN3$_4D2Ev
	.cfi_endproc
                                        # -- End function
	.p2align	4, 0x90         # -- Begin function _Z7time_fnIZ4mainE3$_5JEEviT_DpT0_
	.type	_Z7time_fnIZ4mainE3$_5JEEviT_DpT0_,@function
_Z7time_fnIZ4mainE3$_5JEEviT_DpT0_:     # @"_Z7time_fnIZ4mainE3$_5JEEviT_DpT0_"
	.cfi_startproc
# %bb.0:                                # %entry
	pushq	%rbp
	.cfi_def_cfa_offset 16
	.cfi_offset %rbp, -16
	movq	%rsp, %rbp
	.cfi_def_cfa_register %rbp
	subq	$80, %rsp
	movl	%edi, -4(%rbp)
	movq	%rsi, -64(%rbp)         # 8-byte Spill
	callq	_ZNSt6chrono3_V212system_clock3nowEv
	movq	%rax, -16(%rbp)
	movl	$0, -20(%rbp)
.LBB24_1:                               # %for.cond
                                        # =>This Inner Loop Header: Depth=1
	movl	-20(%rbp), %eax
	cmpl	-4(%rbp), %eax
	jge	.LBB24_4
# %bb.2:                                # %for.body
                                        #   in Loop: Header=BB24_1 Depth=1
	movq	-64(%rbp), %rdi         # 8-byte Reload
	callq	_ZZ4mainENK3$_5clEv
# %bb.3:                                # %for.inc
                                        #   in Loop: Header=BB24_1 Depth=1
	movl	-20(%rbp), %eax
	addl	$1, %eax
	movl	%eax, -20(%rbp)
	jmp	.LBB24_1
.LBB24_4:                               # %for.end
	callq	_ZNSt6chrono3_V212system_clock3nowEv
	movq	%rax, -32(%rbp)
	leaq	-32(%rbp), %rdi
	leaq	-16(%rbp), %rsi
	callq	_ZNSt6chronomiINS_3_V212system_clockENS_8durationIlSt5ratioILl1ELl1000000000EEEES6_EENSt11common_typeIJT0_T1_EE4typeERKNS_10time_pointIT_S8_EERKNSC_ISD_S9_EE
	movq	%rax, -56(%rbp)
	leaq	-56(%rbp), %rdi
	callq	_ZNSt6chrono13duration_castINS_8durationIlSt5ratioILl1ELl1000EEEElS2_ILl1ELl1000000000EEEENSt9enable_ifIXsr13__is_durationIT_EE5valueES7_E4typeERKNS1_IT0_T1_EE
	movq	%rax, -48(%rbp)
	leaq	-48(%rbp), %rdi
	callq	_ZNKSt6chrono8durationIlSt5ratioILl1ELl1000EEE5countEv
	movq	%rax, -40(%rbp)
	movl	-4(%rbp), %esi
	movabsq	$_ZSt4cout, %rdi
	callq	_ZNSolsEi
	movq	%rax, %rdi
	movabsq	$.L.str.11, %rsi
	callq	_ZStlsISt11char_traitsIcEERSt13basic_ostreamIcT_ES5_PKc
	movq	-40(%rbp), %rsi
	movq	%rax, %rdi
	callq	_ZNSolsEl
	movq	%rax, %rdi
	movabsq	$.L.str.12, %rsi
	callq	_ZStlsISt11char_traitsIcEERSt13basic_ostreamIcT_ES5_PKc
	movq	%rax, %rdi
	movabsq	$_ZSt4endlIcSt11char_traitsIcEERSt13basic_ostreamIT_T0_ES6_, %rsi
	callq	_ZNSolsEPFRSoS_E
	movq	%rax, -72(%rbp)         # 8-byte Spill
	addq	$80, %rsp
	popq	%rbp
	.cfi_def_cfa %rsp, 8
	retq
.Lfunc_end24:
	.size	_Z7time_fnIZ4mainE3$_5JEEviT_DpT0_, .Lfunc_end24-_Z7time_fnIZ4mainE3$_5JEEviT_DpT0_
	.cfi_endproc
                                        # -- End function
	.p2align	4, 0x90         # -- Begin function _ZZ4mainEN3$_5D2Ev
	.type	_ZZ4mainEN3$_5D2Ev,@function
_ZZ4mainEN3$_5D2Ev:                     # @"_ZZ4mainEN3$_5D2Ev"
	.cfi_startproc
# %bb.0:                                # %entry
	pushq	%rbp
	.cfi_def_cfa_offset 16
	.cfi_offset %rbp, -16
	movq	%rsp, %rbp
	.cfi_def_cfa_register %rbp
	subq	$16, %rsp
	movq	%rdi, -8(%rbp)
	movq	-8(%rbp), %rdi
	movq	%rdi, %rax
	addq	$64, %rax
	movq	%rdi, -16(%rbp)         # 8-byte Spill
	movq	%rax, %rdi
	callq	_ZN5TSpanILi2EfED2Ev
	movq	-16(%rbp), %rax         # 8-byte Reload
	addq	$32, %rax
	movq	%rax, %rdi
	callq	_ZN5TSpanILi2EfED2Ev
	movq	-16(%rbp), %rdi         # 8-byte Reload
	callq	_ZN5TSpanILi2EfED2Ev
	addq	$16, %rsp
	popq	%rbp
	.cfi_def_cfa %rsp, 8
	retq
.Lfunc_end25:
	.size	_ZZ4mainEN3$_5D2Ev, .Lfunc_end25-_ZZ4mainEN3$_5D2Ev
	.cfi_endproc
                                        # -- End function
	.p2align	4, 0x90         # -- Begin function _Z7time_fnIZ4mainE3$_6JEEviT_DpT0_
	.type	_Z7time_fnIZ4mainE3$_6JEEviT_DpT0_,@function
_Z7time_fnIZ4mainE3$_6JEEviT_DpT0_:     # @"_Z7time_fnIZ4mainE3$_6JEEviT_DpT0_"
	.cfi_startproc
# %bb.0:                                # %entry
	pushq	%rbp
	.cfi_def_cfa_offset 16
	.cfi_offset %rbp, -16
	movq	%rsp, %rbp
	.cfi_def_cfa_register %rbp
	subq	$80, %rsp
	movl	%edi, -4(%rbp)
	movq	%rsi, -64(%rbp)         # 8-byte Spill
	callq	_ZNSt6chrono3_V212system_clock3nowEv
	movq	%rax, -16(%rbp)
	movl	$0, -20(%rbp)
.LBB26_1:                               # %for.cond
                                        # =>This Inner Loop Header: Depth=1
	movl	-20(%rbp), %eax
	cmpl	-4(%rbp), %eax
	jge	.LBB26_4
# %bb.2:                                # %for.body
                                        #   in Loop: Header=BB26_1 Depth=1
	movq	-64(%rbp), %rdi         # 8-byte Reload
	callq	_ZZ4mainENK3$_6clEv
# %bb.3:                                # %for.inc
                                        #   in Loop: Header=BB26_1 Depth=1
	movl	-20(%rbp), %eax
	addl	$1, %eax
	movl	%eax, -20(%rbp)
	jmp	.LBB26_1
.LBB26_4:                               # %for.end
	callq	_ZNSt6chrono3_V212system_clock3nowEv
	movq	%rax, -32(%rbp)
	leaq	-32(%rbp), %rdi
	leaq	-16(%rbp), %rsi
	callq	_ZNSt6chronomiINS_3_V212system_clockENS_8durationIlSt5ratioILl1ELl1000000000EEEES6_EENSt11common_typeIJT0_T1_EE4typeERKNS_10time_pointIT_S8_EERKNSC_ISD_S9_EE
	movq	%rax, -56(%rbp)
	leaq	-56(%rbp), %rdi
	callq	_ZNSt6chrono13duration_castINS_8durationIlSt5ratioILl1ELl1000EEEElS2_ILl1ELl1000000000EEEENSt9enable_ifIXsr13__is_durationIT_EE5valueES7_E4typeERKNS1_IT0_T1_EE
	movq	%rax, -48(%rbp)
	leaq	-48(%rbp), %rdi
	callq	_ZNKSt6chrono8durationIlSt5ratioILl1ELl1000EEE5countEv
	movq	%rax, -40(%rbp)
	movl	-4(%rbp), %esi
	movabsq	$_ZSt4cout, %rdi
	callq	_ZNSolsEi
	movq	%rax, %rdi
	movabsq	$.L.str.11, %rsi
	callq	_ZStlsISt11char_traitsIcEERSt13basic_ostreamIcT_ES5_PKc
	movq	-40(%rbp), %rsi
	movq	%rax, %rdi
	callq	_ZNSolsEl
	movq	%rax, %rdi
	movabsq	$.L.str.12, %rsi
	callq	_ZStlsISt11char_traitsIcEERSt13basic_ostreamIcT_ES5_PKc
	movq	%rax, %rdi
	movabsq	$_ZSt4endlIcSt11char_traitsIcEERSt13basic_ostreamIT_T0_ES6_, %rsi
	callq	_ZNSolsEPFRSoS_E
	movq	%rax, -72(%rbp)         # 8-byte Spill
	addq	$80, %rsp
	popq	%rbp
	.cfi_def_cfa %rsp, 8
	retq
.Lfunc_end26:
	.size	_Z7time_fnIZ4mainE3$_6JEEviT_DpT0_, .Lfunc_end26-_Z7time_fnIZ4mainE3$_6JEEviT_DpT0_
	.cfi_endproc
                                        # -- End function
	.p2align	4, 0x90         # -- Begin function _ZZ4mainEN3$_6D2Ev
	.type	_ZZ4mainEN3$_6D2Ev,@function
_ZZ4mainEN3$_6D2Ev:                     # @"_ZZ4mainEN3$_6D2Ev"
	.cfi_startproc
# %bb.0:                                # %entry
	pushq	%rbp
	.cfi_def_cfa_offset 16
	.cfi_offset %rbp, -16
	movq	%rsp, %rbp
	.cfi_def_cfa_register %rbp
	subq	$16, %rsp
	movq	%rdi, -8(%rbp)
	movq	-8(%rbp), %rdi
	movq	%rdi, %rax
	addq	$64, %rax
	movq	%rdi, -16(%rbp)         # 8-byte Spill
	movq	%rax, %rdi
	callq	_ZN5TSpanILi2EfED2Ev
	movq	-16(%rbp), %rax         # 8-byte Reload
	addq	$32, %rax
	movq	%rax, %rdi
	callq	_ZN5TSpanILi2EfED2Ev
	movq	-16(%rbp), %rdi         # 8-byte Reload
	callq	_ZN5TSpanILi2EfED2Ev
	addq	$16, %rsp
	popq	%rbp
	.cfi_def_cfa %rsp, 8
	retq
.Lfunc_end27:
	.size	_ZZ4mainEN3$_6D2Ev, .Lfunc_end27-_ZZ4mainEN3$_6D2Ev
	.cfi_endproc
                                        # -- End function
	.section	.text._ZNSt6vectorIiSaIiEED2Ev,"axG",@progbits,_ZNSt6vectorIiSaIiEED2Ev,comdat
	.weak	_ZNSt6vectorIiSaIiEED2Ev # -- Begin function _ZNSt6vectorIiSaIiEED2Ev
	.p2align	4, 0x90
	.type	_ZNSt6vectorIiSaIiEED2Ev,@function
_ZNSt6vectorIiSaIiEED2Ev:               # @_ZNSt6vectorIiSaIiEED2Ev
.Lfunc_begin5:
	.cfi_startproc
	.cfi_personality 3, __gxx_personality_v0
	.cfi_lsda 3, .Lexception5
# %bb.0:                                # %entry
	pushq	%rbp
	.cfi_def_cfa_offset 16
	.cfi_offset %rbp, -16
	movq	%rsp, %rbp
	.cfi_def_cfa_register %rbp
	subq	$48, %rsp
	movq	%rdi, -8(%rbp)
	movq	-8(%rbp), %rdi
	movq	(%rdi), %rax
	movq	8(%rdi), %rsi
	movq	%rdi, -32(%rbp)         # 8-byte Spill
	movq	%rsi, -40(%rbp)         # 8-byte Spill
	movq	%rax, -48(%rbp)         # 8-byte Spill
	callq	_ZNSt12_Vector_baseIiSaIiEE19_M_get_Tp_allocatorEv
.Ltmp222:
	movq	-48(%rbp), %rdi         # 8-byte Reload
	movq	-40(%rbp), %rsi         # 8-byte Reload
	movq	%rax, %rdx
	callq	_ZSt8_DestroyIPiiEvT_S1_RSaIT0_E
.Ltmp223:
	jmp	.LBB28_1
.LBB28_1:                               # %invoke.cont
	movq	-32(%rbp), %rax         # 8-byte Reload
	movq	%rax, %rdi
	callq	_ZNSt12_Vector_baseIiSaIiEED2Ev
	addq	$48, %rsp
	popq	%rbp
	.cfi_def_cfa %rsp, 8
	retq
.LBB28_2:                               # %lpad
	.cfi_def_cfa %rbp, 16
.Ltmp224:
	movl	%edx, %ecx
	movq	%rax, -16(%rbp)
	movl	%ecx, -20(%rbp)
	movq	-32(%rbp), %rax         # 8-byte Reload
	movq	%rax, %rdi
	callq	_ZNSt12_Vector_baseIiSaIiEED2Ev
# %bb.3:                                # %terminate.handler
	movq	-16(%rbp), %rdi
	callq	__clang_call_terminate
.Lfunc_end28:
	.size	_ZNSt6vectorIiSaIiEED2Ev, .Lfunc_end28-_ZNSt6vectorIiSaIiEED2Ev
	.cfi_endproc
	.section	.gcc_except_table,"a",@progbits
	.p2align	2
GCC_except_table28:
.Lexception5:
	.byte	255                     # @LPStart Encoding = omit
	.byte	3                       # @TType Encoding = udata4
	.uleb128 .Lttbase1-.Lttbaseref1
.Lttbaseref1:
	.byte	1                       # Call site Encoding = uleb128
	.uleb128 .Lcst_end5-.Lcst_begin5
.Lcst_begin5:
	.uleb128 .Ltmp222-.Lfunc_begin5 # >> Call Site 1 <<
	.uleb128 .Ltmp223-.Ltmp222      #   Call between .Ltmp222 and .Ltmp223
	.uleb128 .Ltmp224-.Lfunc_begin5 #     jumps to .Ltmp224
	.byte	1                       #   On action: 1
.Lcst_end5:
	.byte	1                       # >> Action Record 1 <<
                                        #   Catch TypeInfo 1
	.byte	0                       #   No further actions
	.p2align	2
                                        # >> Catch TypeInfos <<
	.long	0                       # TypeInfo 1
.Lttbase1:
	.p2align	2
                                        # -- End function
	.section	.text._ZNSt6vectorIfSaIfEEaSEOS1_,"axG",@progbits,_ZNSt6vectorIfSaIfEEaSEOS1_,comdat
	.weak	_ZNSt6vectorIfSaIfEEaSEOS1_ # -- Begin function _ZNSt6vectorIfSaIfEEaSEOS1_
	.p2align	4, 0x90
	.type	_ZNSt6vectorIfSaIfEEaSEOS1_,@function
_ZNSt6vectorIfSaIfEEaSEOS1_:            # @_ZNSt6vectorIfSaIfEEaSEOS1_
	.cfi_startproc
# %bb.0:                                # %entry
	pushq	%rbp
	.cfi_def_cfa_offset 16
	.cfi_offset %rbp, -16
	movq	%rsp, %rbp
	.cfi_def_cfa_register %rbp
	subq	$32, %rsp
	movq	%rdi, -8(%rbp)
	movq	%rsi, -16(%rbp)
	movq	-8(%rbp), %rsi
	movb	$1, -17(%rbp)
	movq	-16(%rbp), %rdi
	movq	%rsi, -32(%rbp)         # 8-byte Spill
	callq	_ZSt4moveIRSt6vectorIfSaIfEEEONSt16remove_referenceIT_E4typeEOS5_
	movq	-32(%rbp), %rdi         # 8-byte Reload
	movq	%rax, %rsi
	callq	_ZNSt6vectorIfSaIfEE14_M_move_assignEOS1_St17integral_constantIbLb1EE
	movq	-32(%rbp), %rax         # 8-byte Reload
	addq	$32, %rsp
	popq	%rbp
	.cfi_def_cfa %rsp, 8
	retq
.Lfunc_end29:
	.size	_ZNSt6vectorIfSaIfEEaSEOS1_, .Lfunc_end29-_ZNSt6vectorIfSaIfEEaSEOS1_
	.cfi_endproc
                                        # -- End function
	.section	.text._ZNSt6vectorIiSaIiEEaSEOS1_,"axG",@progbits,_ZNSt6vectorIiSaIiEEaSEOS1_,comdat
	.weak	_ZNSt6vectorIiSaIiEEaSEOS1_ # -- Begin function _ZNSt6vectorIiSaIiEEaSEOS1_
	.p2align	4, 0x90
	.type	_ZNSt6vectorIiSaIiEEaSEOS1_,@function
_ZNSt6vectorIiSaIiEEaSEOS1_:            # @_ZNSt6vectorIiSaIiEEaSEOS1_
	.cfi_startproc
# %bb.0:                                # %entry
	pushq	%rbp
	.cfi_def_cfa_offset 16
	.cfi_offset %rbp, -16
	movq	%rsp, %rbp
	.cfi_def_cfa_register %rbp
	subq	$32, %rsp
	movq	%rdi, -8(%rbp)
	movq	%rsi, -16(%rbp)
	movq	-8(%rbp), %rsi
	movb	$1, -17(%rbp)
	movq	-16(%rbp), %rdi
	movq	%rsi, -32(%rbp)         # 8-byte Spill
	callq	_ZSt4moveIRSt6vectorIiSaIiEEEONSt16remove_referenceIT_E4typeEOS5_
	movq	-32(%rbp), %rdi         # 8-byte Reload
	movq	%rax, %rsi
	callq	_ZNSt6vectorIiSaIiEE14_M_move_assignEOS1_St17integral_constantIbLb1EE
	movq	-32(%rbp), %rax         # 8-byte Reload
	addq	$32, %rsp
	popq	%rbp
	.cfi_def_cfa %rsp, 8
	retq
.Lfunc_end30:
	.size	_ZNSt6vectorIiSaIiEEaSEOS1_, .Lfunc_end30-_ZNSt6vectorIiSaIiEEaSEOS1_
	.cfi_endproc
                                        # -- End function
	.section	.text._ZNSt6vectorIfSaIfEE14_M_move_assignEOS1_St17integral_constantIbLb1EE,"axG",@progbits,_ZNSt6vectorIfSaIfEE14_M_move_assignEOS1_St17integral_constantIbLb1EE,comdat
	.weak	_ZNSt6vectorIfSaIfEE14_M_move_assignEOS1_St17integral_constantIbLb1EE # -- Begin function _ZNSt6vectorIfSaIfEE14_M_move_assignEOS1_St17integral_constantIbLb1EE
	.p2align	4, 0x90
	.type	_ZNSt6vectorIfSaIfEE14_M_move_assignEOS1_St17integral_constantIbLb1EE,@function
_ZNSt6vectorIfSaIfEE14_M_move_assignEOS1_St17integral_constantIbLb1EE: # @_ZNSt6vectorIfSaIfEE14_M_move_assignEOS1_St17integral_constantIbLb1EE
.Lfunc_begin6:
	.cfi_startproc
	.cfi_personality 3, __gxx_personality_v0
	.cfi_lsda 3, .Lexception6
# %bb.0:                                # %entry
	pushq	%rbp
	.cfi_def_cfa_offset 16
	.cfi_offset %rbp, -16
	movq	%rsp, %rbp
	.cfi_def_cfa_register %rbp
	subq	$112, %rsp
	movq	%rdi, -16(%rbp)
	movq	%rsi, -24(%rbp)
	movq	-16(%rbp), %rsi
	leaq	-56(%rbp), %rdi
	movq	%rdi, -80(%rbp)         # 8-byte Spill
	movq	%rsi, -88(%rbp)         # 8-byte Spill
	callq	_ZNKSt12_Vector_baseIfSaIfEE13get_allocatorEv
	leaq	-48(%rbp), %rsi
	movq	%rsi, %rdi
	movq	-80(%rbp), %rax         # 8-byte Reload
	movq	%rsi, -96(%rbp)         # 8-byte Spill
	movq	%rax, %rsi
	callq	_ZNSt6vectorIfSaIfEEC2ERKS0_
	movq	-80(%rbp), %rdi         # 8-byte Reload
	callq	_ZNSaIfED2Ev
	movq	-88(%rbp), %rdi         # 8-byte Reload
	movq	-96(%rbp), %rsi         # 8-byte Reload
	callq	_ZNSt12_Vector_baseIfSaIfEE12_Vector_impl12_M_swap_dataERS2_
	movq	-24(%rbp), %rsi
	movq	-88(%rbp), %rdi         # 8-byte Reload
	callq	_ZNSt12_Vector_baseIfSaIfEE12_Vector_impl12_M_swap_dataERS2_
	movq	-88(%rbp), %rdi         # 8-byte Reload
	callq	_ZNSt12_Vector_baseIfSaIfEE19_M_get_Tp_allocatorEv
	movq	-24(%rbp), %rdi
	movq	%rax, -104(%rbp)        # 8-byte Spill
	callq	_ZNSt12_Vector_baseIfSaIfEE19_M_get_Tp_allocatorEv
.Ltmp225:
	movq	-104(%rbp), %rdi        # 8-byte Reload
	movq	%rax, %rsi
	callq	_ZSt15__alloc_on_moveISaIfEEvRT_S2_
.Ltmp226:
	jmp	.LBB31_1
.LBB31_1:                               # %invoke.cont
	leaq	-48(%rbp), %rdi
	callq	_ZNSt6vectorIfSaIfEED2Ev
	addq	$112, %rsp
	popq	%rbp
	.cfi_def_cfa %rsp, 8
	retq
.LBB31_2:                               # %lpad
	.cfi_def_cfa %rbp, 16
.Ltmp227:
	movl	%edx, %ecx
	movq	%rax, -64(%rbp)
	movl	%ecx, -68(%rbp)
	leaq	-48(%rbp), %rdi
	callq	_ZNSt6vectorIfSaIfEED2Ev
# %bb.3:                                # %terminate.handler
	movq	-64(%rbp), %rdi
	callq	__clang_call_terminate
.Lfunc_end31:
	.size	_ZNSt6vectorIfSaIfEE14_M_move_assignEOS1_St17integral_constantIbLb1EE, .Lfunc_end31-_ZNSt6vectorIfSaIfEE14_M_move_assignEOS1_St17integral_constantIbLb1EE
	.cfi_endproc
	.section	.gcc_except_table,"a",@progbits
	.p2align	2
GCC_except_table31:
.Lexception6:
	.byte	255                     # @LPStart Encoding = omit
	.byte	3                       # @TType Encoding = udata4
	.uleb128 .Lttbase2-.Lttbaseref2
.Lttbaseref2:
	.byte	1                       # Call site Encoding = uleb128
	.uleb128 .Lcst_end6-.Lcst_begin6
.Lcst_begin6:
	.uleb128 .Ltmp225-.Lfunc_begin6 # >> Call Site 1 <<
	.uleb128 .Ltmp226-.Ltmp225      #   Call between .Ltmp225 and .Ltmp226
	.uleb128 .Ltmp227-.Lfunc_begin6 #     jumps to .Ltmp227
	.byte	1                       #   On action: 1
.Lcst_end6:
	.byte	1                       # >> Action Record 1 <<
                                        #   Catch TypeInfo 1
	.byte	0                       #   No further actions
	.p2align	2
                                        # >> Catch TypeInfos <<
	.long	0                       # TypeInfo 1
.Lttbase2:
	.p2align	2
                                        # -- End function
	.section	.text._ZSt4moveIRSt6vectorIfSaIfEEEONSt16remove_referenceIT_E4typeEOS5_,"axG",@progbits,_ZSt4moveIRSt6vectorIfSaIfEEEONSt16remove_referenceIT_E4typeEOS5_,comdat
	.weak	_ZSt4moveIRSt6vectorIfSaIfEEEONSt16remove_referenceIT_E4typeEOS5_ # -- Begin function _ZSt4moveIRSt6vectorIfSaIfEEEONSt16remove_referenceIT_E4typeEOS5_
	.p2align	4, 0x90
	.type	_ZSt4moveIRSt6vectorIfSaIfEEEONSt16remove_referenceIT_E4typeEOS5_,@function
_ZSt4moveIRSt6vectorIfSaIfEEEONSt16remove_referenceIT_E4typeEOS5_: # @_ZSt4moveIRSt6vectorIfSaIfEEEONSt16remove_referenceIT_E4typeEOS5_
	.cfi_startproc
# %bb.0:                                # %entry
	pushq	%rbp
	.cfi_def_cfa_offset 16
	.cfi_offset %rbp, -16
	movq	%rsp, %rbp
	.cfi_def_cfa_register %rbp
	movq	%rdi, -8(%rbp)
	movq	-8(%rbp), %rax
	popq	%rbp
	.cfi_def_cfa %rsp, 8
	retq
.Lfunc_end32:
	.size	_ZSt4moveIRSt6vectorIfSaIfEEEONSt16remove_referenceIT_E4typeEOS5_, .Lfunc_end32-_ZSt4moveIRSt6vectorIfSaIfEEEONSt16remove_referenceIT_E4typeEOS5_
	.cfi_endproc
                                        # -- End function
	.section	.text._ZNKSt12_Vector_baseIfSaIfEE13get_allocatorEv,"axG",@progbits,_ZNKSt12_Vector_baseIfSaIfEE13get_allocatorEv,comdat
	.weak	_ZNKSt12_Vector_baseIfSaIfEE13get_allocatorEv # -- Begin function _ZNKSt12_Vector_baseIfSaIfEE13get_allocatorEv
	.p2align	4, 0x90
	.type	_ZNKSt12_Vector_baseIfSaIfEE13get_allocatorEv,@function
_ZNKSt12_Vector_baseIfSaIfEE13get_allocatorEv: # @_ZNKSt12_Vector_baseIfSaIfEE13get_allocatorEv
	.cfi_startproc
# %bb.0:                                # %entry
	pushq	%rbp
	.cfi_def_cfa_offset 16
	.cfi_offset %rbp, -16
	movq	%rsp, %rbp
	.cfi_def_cfa_register %rbp
	subq	$32, %rsp
	movq	%rdi, %rax
	movq	%rsi, -8(%rbp)
	movq	-8(%rbp), %rsi
	movq	%rdi, -16(%rbp)         # 8-byte Spill
	movq	%rsi, %rdi
	movq	%rax, -24(%rbp)         # 8-byte Spill
	callq	_ZNKSt12_Vector_baseIfSaIfEE19_M_get_Tp_allocatorEv
	movq	-16(%rbp), %rdi         # 8-byte Reload
	movq	%rax, %rsi
	callq	_ZNSaIfEC2ERKS_
	movq	-24(%rbp), %rax         # 8-byte Reload
	addq	$32, %rsp
	popq	%rbp
	.cfi_def_cfa %rsp, 8
	retq
.Lfunc_end33:
	.size	_ZNKSt12_Vector_baseIfSaIfEE13get_allocatorEv, .Lfunc_end33-_ZNKSt12_Vector_baseIfSaIfEE13get_allocatorEv
	.cfi_endproc
                                        # -- End function
	.section	.text._ZNSt6vectorIfSaIfEEC2ERKS0_,"axG",@progbits,_ZNSt6vectorIfSaIfEEC2ERKS0_,comdat
	.weak	_ZNSt6vectorIfSaIfEEC2ERKS0_ # -- Begin function _ZNSt6vectorIfSaIfEEC2ERKS0_
	.p2align	4, 0x90
	.type	_ZNSt6vectorIfSaIfEEC2ERKS0_,@function
_ZNSt6vectorIfSaIfEEC2ERKS0_:           # @_ZNSt6vectorIfSaIfEEC2ERKS0_
	.cfi_startproc
# %bb.0:                                # %entry
	pushq	%rbp
	.cfi_def_cfa_offset 16
	.cfi_offset %rbp, -16
	movq	%rsp, %rbp
	.cfi_def_cfa_register %rbp
	subq	$32, %rsp
	movq	%rdi, -8(%rbp)
	movq	%rsi, -16(%rbp)
	movq	-8(%rbp), %rsi
	movq	-16(%rbp), %rdi
	movq	%rdi, -24(%rbp)         # 8-byte Spill
	movq	%rsi, %rdi
	movq	-24(%rbp), %rsi         # 8-byte Reload
	callq	_ZNSt12_Vector_baseIfSaIfEEC2ERKS0_
	addq	$32, %rsp
	popq	%rbp
	.cfi_def_cfa %rsp, 8
	retq
.Lfunc_end34:
	.size	_ZNSt6vectorIfSaIfEEC2ERKS0_, .Lfunc_end34-_ZNSt6vectorIfSaIfEEC2ERKS0_
	.cfi_endproc
                                        # -- End function
	.section	.text._ZNSaIfED2Ev,"axG",@progbits,_ZNSaIfED2Ev,comdat
	.weak	_ZNSaIfED2Ev            # -- Begin function _ZNSaIfED2Ev
	.p2align	4, 0x90
	.type	_ZNSaIfED2Ev,@function
_ZNSaIfED2Ev:                           # @_ZNSaIfED2Ev
	.cfi_startproc
# %bb.0:                                # %entry
	pushq	%rbp
	.cfi_def_cfa_offset 16
	.cfi_offset %rbp, -16
	movq	%rsp, %rbp
	.cfi_def_cfa_register %rbp
	subq	$16, %rsp
	movq	%rdi, -8(%rbp)
	movq	-8(%rbp), %rdi
	callq	_ZN9__gnu_cxx13new_allocatorIfED2Ev
	addq	$16, %rsp
	popq	%rbp
	.cfi_def_cfa %rsp, 8
	retq
.Lfunc_end35:
	.size	_ZNSaIfED2Ev, .Lfunc_end35-_ZNSaIfED2Ev
	.cfi_endproc
                                        # -- End function
	.section	.text._ZNSt12_Vector_baseIfSaIfEE12_Vector_impl12_M_swap_dataERS2_,"axG",@progbits,_ZNSt12_Vector_baseIfSaIfEE12_Vector_impl12_M_swap_dataERS2_,comdat
	.weak	_ZNSt12_Vector_baseIfSaIfEE12_Vector_impl12_M_swap_dataERS2_ # -- Begin function _ZNSt12_Vector_baseIfSaIfEE12_Vector_impl12_M_swap_dataERS2_
	.p2align	4, 0x90
	.type	_ZNSt12_Vector_baseIfSaIfEE12_Vector_impl12_M_swap_dataERS2_,@function
_ZNSt12_Vector_baseIfSaIfEE12_Vector_impl12_M_swap_dataERS2_: # @_ZNSt12_Vector_baseIfSaIfEE12_Vector_impl12_M_swap_dataERS2_
	.cfi_startproc
# %bb.0:                                # %entry
	pushq	%rbp
	.cfi_def_cfa_offset 16
	.cfi_offset %rbp, -16
	movq	%rsp, %rbp
	.cfi_def_cfa_register %rbp
	subq	$32, %rsp
	movq	%rdi, -8(%rbp)
	movq	%rsi, -16(%rbp)
	movq	-8(%rbp), %rsi
	movq	-16(%rbp), %rdi
	movq	%rdi, -24(%rbp)         # 8-byte Spill
	movq	%rsi, %rdi
	movq	-24(%rbp), %rax         # 8-byte Reload
	movq	%rsi, -32(%rbp)         # 8-byte Spill
	movq	%rax, %rsi
	callq	_ZSt4swapIPfENSt9enable_ifIXsr6__and_ISt6__not_ISt15__is_tuple_likeIT_EESt21is_move_constructibleIS4_ESt18is_move_assignableIS4_EEE5valueEvE4typeERS4_SD_
	movq	-32(%rbp), %rax         # 8-byte Reload
	addq	$8, %rax
	movq	-16(%rbp), %rsi
	addq	$8, %rsi
	movq	%rax, %rdi
	callq	_ZSt4swapIPfENSt9enable_ifIXsr6__and_ISt6__not_ISt15__is_tuple_likeIT_EESt21is_move_constructibleIS4_ESt18is_move_assignableIS4_EEE5valueEvE4typeERS4_SD_
	movq	-32(%rbp), %rax         # 8-byte Reload
	addq	$16, %rax
	movq	-16(%rbp), %rsi
	addq	$16, %rsi
	movq	%rax, %rdi
	callq	_ZSt4swapIPfENSt9enable_ifIXsr6__and_ISt6__not_ISt15__is_tuple_likeIT_EESt21is_move_constructibleIS4_ESt18is_move_assignableIS4_EEE5valueEvE4typeERS4_SD_
	addq	$32, %rsp
	popq	%rbp
	.cfi_def_cfa %rsp, 8
	retq
.Lfunc_end36:
	.size	_ZNSt12_Vector_baseIfSaIfEE12_Vector_impl12_M_swap_dataERS2_, .Lfunc_end36-_ZNSt12_Vector_baseIfSaIfEE12_Vector_impl12_M_swap_dataERS2_
	.cfi_endproc
                                        # -- End function
	.section	.text._ZSt15__alloc_on_moveISaIfEEvRT_S2_,"axG",@progbits,_ZSt15__alloc_on_moveISaIfEEvRT_S2_,comdat
	.weak	_ZSt15__alloc_on_moveISaIfEEvRT_S2_ # -- Begin function _ZSt15__alloc_on_moveISaIfEEvRT_S2_
	.p2align	4, 0x90
	.type	_ZSt15__alloc_on_moveISaIfEEvRT_S2_,@function
_ZSt15__alloc_on_moveISaIfEEvRT_S2_:    # @_ZSt15__alloc_on_moveISaIfEEvRT_S2_
	.cfi_startproc
# %bb.0:                                # %entry
	pushq	%rbp
	.cfi_def_cfa_offset 16
	.cfi_offset %rbp, -16
	movq	%rsp, %rbp
	.cfi_def_cfa_register %rbp
	subq	$32, %rsp
	movq	%rdi, -8(%rbp)
	movq	%rsi, -16(%rbp)
	movq	-8(%rbp), %rdi
	movq	-16(%rbp), %rsi
	callq	_ZSt18__do_alloc_on_moveISaIfEEvRT_S2_St17integral_constantIbLb1EE
	addq	$32, %rsp
	popq	%rbp
	.cfi_def_cfa %rsp, 8
	retq
.Lfunc_end37:
	.size	_ZSt15__alloc_on_moveISaIfEEvRT_S2_, .Lfunc_end37-_ZSt15__alloc_on_moveISaIfEEvRT_S2_
	.cfi_endproc
                                        # -- End function
	.section	.text._ZNSt12_Vector_baseIfSaIfEE19_M_get_Tp_allocatorEv,"axG",@progbits,_ZNSt12_Vector_baseIfSaIfEE19_M_get_Tp_allocatorEv,comdat
	.weak	_ZNSt12_Vector_baseIfSaIfEE19_M_get_Tp_allocatorEv # -- Begin function _ZNSt12_Vector_baseIfSaIfEE19_M_get_Tp_allocatorEv
	.p2align	4, 0x90
	.type	_ZNSt12_Vector_baseIfSaIfEE19_M_get_Tp_allocatorEv,@function
_ZNSt12_Vector_baseIfSaIfEE19_M_get_Tp_allocatorEv: # @_ZNSt12_Vector_baseIfSaIfEE19_M_get_Tp_allocatorEv
	.cfi_startproc
# %bb.0:                                # %entry
	pushq	%rbp
	.cfi_def_cfa_offset 16
	.cfi_offset %rbp, -16
	movq	%rsp, %rbp
	.cfi_def_cfa_register %rbp
	movq	%rdi, -8(%rbp)
	movq	-8(%rbp), %rdi
	movq	%rdi, %rax
	popq	%rbp
	.cfi_def_cfa %rsp, 8
	retq
.Lfunc_end38:
	.size	_ZNSt12_Vector_baseIfSaIfEE19_M_get_Tp_allocatorEv, .Lfunc_end38-_ZNSt12_Vector_baseIfSaIfEE19_M_get_Tp_allocatorEv
	.cfi_endproc
                                        # -- End function
	.section	.text._ZNSt6vectorIfSaIfEED2Ev,"axG",@progbits,_ZNSt6vectorIfSaIfEED2Ev,comdat
	.weak	_ZNSt6vectorIfSaIfEED2Ev # -- Begin function _ZNSt6vectorIfSaIfEED2Ev
	.p2align	4, 0x90
	.type	_ZNSt6vectorIfSaIfEED2Ev,@function
_ZNSt6vectorIfSaIfEED2Ev:               # @_ZNSt6vectorIfSaIfEED2Ev
.Lfunc_begin7:
	.cfi_startproc
	.cfi_personality 3, __gxx_personality_v0
	.cfi_lsda 3, .Lexception7
# %bb.0:                                # %entry
	pushq	%rbp
	.cfi_def_cfa_offset 16
	.cfi_offset %rbp, -16
	movq	%rsp, %rbp
	.cfi_def_cfa_register %rbp
	subq	$48, %rsp
	movq	%rdi, -8(%rbp)
	movq	-8(%rbp), %rdi
	movq	(%rdi), %rax
	movq	8(%rdi), %rsi
	movq	%rdi, -32(%rbp)         # 8-byte Spill
	movq	%rsi, -40(%rbp)         # 8-byte Spill
	movq	%rax, -48(%rbp)         # 8-byte Spill
	callq	_ZNSt12_Vector_baseIfSaIfEE19_M_get_Tp_allocatorEv
.Ltmp228:
	movq	-48(%rbp), %rdi         # 8-byte Reload
	movq	-40(%rbp), %rsi         # 8-byte Reload
	movq	%rax, %rdx
	callq	_ZSt8_DestroyIPffEvT_S1_RSaIT0_E
.Ltmp229:
	jmp	.LBB39_1
.LBB39_1:                               # %invoke.cont
	movq	-32(%rbp), %rax         # 8-byte Reload
	movq	%rax, %rdi
	callq	_ZNSt12_Vector_baseIfSaIfEED2Ev
	addq	$48, %rsp
	popq	%rbp
	.cfi_def_cfa %rsp, 8
	retq
.LBB39_2:                               # %lpad
	.cfi_def_cfa %rbp, 16
.Ltmp230:
	movl	%edx, %ecx
	movq	%rax, -16(%rbp)
	movl	%ecx, -20(%rbp)
	movq	-32(%rbp), %rax         # 8-byte Reload
	movq	%rax, %rdi
	callq	_ZNSt12_Vector_baseIfSaIfEED2Ev
# %bb.3:                                # %terminate.handler
	movq	-16(%rbp), %rdi
	callq	__clang_call_terminate
.Lfunc_end39:
	.size	_ZNSt6vectorIfSaIfEED2Ev, .Lfunc_end39-_ZNSt6vectorIfSaIfEED2Ev
	.cfi_endproc
	.section	.gcc_except_table,"a",@progbits
	.p2align	2
GCC_except_table39:
.Lexception7:
	.byte	255                     # @LPStart Encoding = omit
	.byte	3                       # @TType Encoding = udata4
	.uleb128 .Lttbase3-.Lttbaseref3
.Lttbaseref3:
	.byte	1                       # Call site Encoding = uleb128
	.uleb128 .Lcst_end7-.Lcst_begin7
.Lcst_begin7:
	.uleb128 .Ltmp228-.Lfunc_begin7 # >> Call Site 1 <<
	.uleb128 .Ltmp229-.Ltmp228      #   Call between .Ltmp228 and .Ltmp229
	.uleb128 .Ltmp230-.Lfunc_begin7 #     jumps to .Ltmp230
	.byte	1                       #   On action: 1
.Lcst_end7:
	.byte	1                       # >> Action Record 1 <<
                                        #   Catch TypeInfo 1
	.byte	0                       #   No further actions
	.p2align	2
                                        # >> Catch TypeInfos <<
	.long	0                       # TypeInfo 1
.Lttbase3:
	.p2align	2
                                        # -- End function
	.section	.text.__clang_call_terminate,"axG",@progbits,__clang_call_terminate,comdat
	.hidden	__clang_call_terminate  # -- Begin function __clang_call_terminate
	.weak	__clang_call_terminate
	.p2align	4, 0x90
	.type	__clang_call_terminate,@function
__clang_call_terminate:                 # @__clang_call_terminate
# %bb.0:
	pushq	%rax
	callq	__cxa_begin_catch
	movq	%rax, (%rsp)            # 8-byte Spill
	callq	_ZSt9terminatev
.Lfunc_end40:
	.size	__clang_call_terminate, .Lfunc_end40-__clang_call_terminate
                                        # -- End function
	.section	.text._ZNKSt12_Vector_baseIfSaIfEE19_M_get_Tp_allocatorEv,"axG",@progbits,_ZNKSt12_Vector_baseIfSaIfEE19_M_get_Tp_allocatorEv,comdat
	.weak	_ZNKSt12_Vector_baseIfSaIfEE19_M_get_Tp_allocatorEv # -- Begin function _ZNKSt12_Vector_baseIfSaIfEE19_M_get_Tp_allocatorEv
	.p2align	4, 0x90
	.type	_ZNKSt12_Vector_baseIfSaIfEE19_M_get_Tp_allocatorEv,@function
_ZNKSt12_Vector_baseIfSaIfEE19_M_get_Tp_allocatorEv: # @_ZNKSt12_Vector_baseIfSaIfEE19_M_get_Tp_allocatorEv
	.cfi_startproc
# %bb.0:                                # %entry
	pushq	%rbp
	.cfi_def_cfa_offset 16
	.cfi_offset %rbp, -16
	movq	%rsp, %rbp
	.cfi_def_cfa_register %rbp
	movq	%rdi, -8(%rbp)
	movq	-8(%rbp), %rdi
	movq	%rdi, %rax
	popq	%rbp
	.cfi_def_cfa %rsp, 8
	retq
.Lfunc_end41:
	.size	_ZNKSt12_Vector_baseIfSaIfEE19_M_get_Tp_allocatorEv, .Lfunc_end41-_ZNKSt12_Vector_baseIfSaIfEE19_M_get_Tp_allocatorEv
	.cfi_endproc
                                        # -- End function
	.section	.text._ZNSaIfEC2ERKS_,"axG",@progbits,_ZNSaIfEC2ERKS_,comdat
	.weak	_ZNSaIfEC2ERKS_         # -- Begin function _ZNSaIfEC2ERKS_
	.p2align	4, 0x90
	.type	_ZNSaIfEC2ERKS_,@function
_ZNSaIfEC2ERKS_:                        # @_ZNSaIfEC2ERKS_
	.cfi_startproc
# %bb.0:                                # %entry
	pushq	%rbp
	.cfi_def_cfa_offset 16
	.cfi_offset %rbp, -16
	movq	%rsp, %rbp
	.cfi_def_cfa_register %rbp
	subq	$32, %rsp
	movq	%rdi, -8(%rbp)
	movq	%rsi, -16(%rbp)
	movq	-8(%rbp), %rsi
	movq	-16(%rbp), %rdi
	movq	%rdi, -24(%rbp)         # 8-byte Spill
	movq	%rsi, %rdi
	movq	-24(%rbp), %rsi         # 8-byte Reload
	callq	_ZN9__gnu_cxx13new_allocatorIfEC2ERKS1_
	addq	$32, %rsp
	popq	%rbp
	.cfi_def_cfa %rsp, 8
	retq
.Lfunc_end42:
	.size	_ZNSaIfEC2ERKS_, .Lfunc_end42-_ZNSaIfEC2ERKS_
	.cfi_endproc
                                        # -- End function
	.section	.text._ZN9__gnu_cxx13new_allocatorIfEC2ERKS1_,"axG",@progbits,_ZN9__gnu_cxx13new_allocatorIfEC2ERKS1_,comdat
	.weak	_ZN9__gnu_cxx13new_allocatorIfEC2ERKS1_ # -- Begin function _ZN9__gnu_cxx13new_allocatorIfEC2ERKS1_
	.p2align	4, 0x90
	.type	_ZN9__gnu_cxx13new_allocatorIfEC2ERKS1_,@function
_ZN9__gnu_cxx13new_allocatorIfEC2ERKS1_: # @_ZN9__gnu_cxx13new_allocatorIfEC2ERKS1_
	.cfi_startproc
# %bb.0:                                # %entry
	pushq	%rbp
	.cfi_def_cfa_offset 16
	.cfi_offset %rbp, -16
	movq	%rsp, %rbp
	.cfi_def_cfa_register %rbp
	movq	%rdi, -8(%rbp)
	movq	%rsi, -16(%rbp)
	popq	%rbp
	.cfi_def_cfa %rsp, 8
	retq
.Lfunc_end43:
	.size	_ZN9__gnu_cxx13new_allocatorIfEC2ERKS1_, .Lfunc_end43-_ZN9__gnu_cxx13new_allocatorIfEC2ERKS1_
	.cfi_endproc
                                        # -- End function
	.section	.text._ZNSt12_Vector_baseIfSaIfEEC2ERKS0_,"axG",@progbits,_ZNSt12_Vector_baseIfSaIfEEC2ERKS0_,comdat
	.weak	_ZNSt12_Vector_baseIfSaIfEEC2ERKS0_ # -- Begin function _ZNSt12_Vector_baseIfSaIfEEC2ERKS0_
	.p2align	4, 0x90
	.type	_ZNSt12_Vector_baseIfSaIfEEC2ERKS0_,@function
_ZNSt12_Vector_baseIfSaIfEEC2ERKS0_:    # @_ZNSt12_Vector_baseIfSaIfEEC2ERKS0_
	.cfi_startproc
# %bb.0:                                # %entry
	pushq	%rbp
	.cfi_def_cfa_offset 16
	.cfi_offset %rbp, -16
	movq	%rsp, %rbp
	.cfi_def_cfa_register %rbp
	subq	$16, %rsp
	movq	%rdi, -8(%rbp)
	movq	%rsi, -16(%rbp)
	movq	-8(%rbp), %rdi
	movq	-16(%rbp), %rsi
	callq	_ZNSt12_Vector_baseIfSaIfEE12_Vector_implC2ERKS0_
	addq	$16, %rsp
	popq	%rbp
	.cfi_def_cfa %rsp, 8
	retq
.Lfunc_end44:
	.size	_ZNSt12_Vector_baseIfSaIfEEC2ERKS0_, .Lfunc_end44-_ZNSt12_Vector_baseIfSaIfEEC2ERKS0_
	.cfi_endproc
                                        # -- End function
	.section	.text._ZNSt12_Vector_baseIfSaIfEE12_Vector_implC2ERKS0_,"axG",@progbits,_ZNSt12_Vector_baseIfSaIfEE12_Vector_implC2ERKS0_,comdat
	.weak	_ZNSt12_Vector_baseIfSaIfEE12_Vector_implC2ERKS0_ # -- Begin function _ZNSt12_Vector_baseIfSaIfEE12_Vector_implC2ERKS0_
	.p2align	4, 0x90
	.type	_ZNSt12_Vector_baseIfSaIfEE12_Vector_implC2ERKS0_,@function
_ZNSt12_Vector_baseIfSaIfEE12_Vector_implC2ERKS0_: # @_ZNSt12_Vector_baseIfSaIfEE12_Vector_implC2ERKS0_
	.cfi_startproc
# %bb.0:                                # %entry
	pushq	%rbp
	.cfi_def_cfa_offset 16
	.cfi_offset %rbp, -16
	movq	%rsp, %rbp
	.cfi_def_cfa_register %rbp
	subq	$32, %rsp
	movq	%rdi, -8(%rbp)
	movq	%rsi, -16(%rbp)
	movq	-8(%rbp), %rsi
	movq	%rsi, %rdi
	movq	-16(%rbp), %rax
	movq	%rsi, -24(%rbp)         # 8-byte Spill
	movq	%rax, %rsi
	callq	_ZNSaIfEC2ERKS_
	movq	-24(%rbp), %rax         # 8-byte Reload
	movq	$0, (%rax)
	movq	$0, 8(%rax)
	movq	$0, 16(%rax)
	addq	$32, %rsp
	popq	%rbp
	.cfi_def_cfa %rsp, 8
	retq
.Lfunc_end45:
	.size	_ZNSt12_Vector_baseIfSaIfEE12_Vector_implC2ERKS0_, .Lfunc_end45-_ZNSt12_Vector_baseIfSaIfEE12_Vector_implC2ERKS0_
	.cfi_endproc
                                        # -- End function
	.section	.text._ZN9__gnu_cxx13new_allocatorIfED2Ev,"axG",@progbits,_ZN9__gnu_cxx13new_allocatorIfED2Ev,comdat
	.weak	_ZN9__gnu_cxx13new_allocatorIfED2Ev # -- Begin function _ZN9__gnu_cxx13new_allocatorIfED2Ev
	.p2align	4, 0x90
	.type	_ZN9__gnu_cxx13new_allocatorIfED2Ev,@function
_ZN9__gnu_cxx13new_allocatorIfED2Ev:    # @_ZN9__gnu_cxx13new_allocatorIfED2Ev
	.cfi_startproc
# %bb.0:                                # %entry
	pushq	%rbp
	.cfi_def_cfa_offset 16
	.cfi_offset %rbp, -16
	movq	%rsp, %rbp
	.cfi_def_cfa_register %rbp
	movq	%rdi, -8(%rbp)
	popq	%rbp
	.cfi_def_cfa %rsp, 8
	retq
.Lfunc_end46:
	.size	_ZN9__gnu_cxx13new_allocatorIfED2Ev, .Lfunc_end46-_ZN9__gnu_cxx13new_allocatorIfED2Ev
	.cfi_endproc
                                        # -- End function
	.section	.text._ZSt4swapIPfENSt9enable_ifIXsr6__and_ISt6__not_ISt15__is_tuple_likeIT_EESt21is_move_constructibleIS4_ESt18is_move_assignableIS4_EEE5valueEvE4typeERS4_SD_,"axG",@progbits,_ZSt4swapIPfENSt9enable_ifIXsr6__and_ISt6__not_ISt15__is_tuple_likeIT_EESt21is_move_constructibleIS4_ESt18is_move_assignableIS4_EEE5valueEvE4typeERS4_SD_,comdat
	.weak	_ZSt4swapIPfENSt9enable_ifIXsr6__and_ISt6__not_ISt15__is_tuple_likeIT_EESt21is_move_constructibleIS4_ESt18is_move_assignableIS4_EEE5valueEvE4typeERS4_SD_ # -- Begin function _ZSt4swapIPfENSt9enable_ifIXsr6__and_ISt6__not_ISt15__is_tuple_likeIT_EESt21is_move_constructibleIS4_ESt18is_move_assignableIS4_EEE5valueEvE4typeERS4_SD_
	.p2align	4, 0x90
	.type	_ZSt4swapIPfENSt9enable_ifIXsr6__and_ISt6__not_ISt15__is_tuple_likeIT_EESt21is_move_constructibleIS4_ESt18is_move_assignableIS4_EEE5valueEvE4typeERS4_SD_,@function
_ZSt4swapIPfENSt9enable_ifIXsr6__and_ISt6__not_ISt15__is_tuple_likeIT_EESt21is_move_constructibleIS4_ESt18is_move_assignableIS4_EEE5valueEvE4typeERS4_SD_: # @_ZSt4swapIPfENSt9enable_ifIXsr6__and_ISt6__not_ISt15__is_tuple_likeIT_EESt21is_move_constructibleIS4_ESt18is_move_assignableIS4_EEE5valueEvE4typeERS4_SD_
	.cfi_startproc
# %bb.0:                                # %entry
	pushq	%rbp
	.cfi_def_cfa_offset 16
	.cfi_offset %rbp, -16
	movq	%rsp, %rbp
	.cfi_def_cfa_register %rbp
	subq	$32, %rsp
	movq	%rdi, -8(%rbp)
	movq	%rsi, -16(%rbp)
	movq	-8(%rbp), %rdi
	callq	_ZSt4moveIRPfEONSt16remove_referenceIT_E4typeEOS3_
	movq	(%rax), %rax
	movq	%rax, -24(%rbp)
	movq	-16(%rbp), %rdi
	callq	_ZSt4moveIRPfEONSt16remove_referenceIT_E4typeEOS3_
	movq	(%rax), %rax
	movq	-8(%rbp), %rsi
	movq	%rax, (%rsi)
	leaq	-24(%rbp), %rdi
	callq	_ZSt4moveIRPfEONSt16remove_referenceIT_E4typeEOS3_
	movq	(%rax), %rax
	movq	-16(%rbp), %rsi
	movq	%rax, (%rsi)
	addq	$32, %rsp
	popq	%rbp
	.cfi_def_cfa %rsp, 8
	retq
.Lfunc_end47:
	.size	_ZSt4swapIPfENSt9enable_ifIXsr6__and_ISt6__not_ISt15__is_tuple_likeIT_EESt21is_move_constructibleIS4_ESt18is_move_assignableIS4_EEE5valueEvE4typeERS4_SD_, .Lfunc_end47-_ZSt4swapIPfENSt9enable_ifIXsr6__and_ISt6__not_ISt15__is_tuple_likeIT_EESt21is_move_constructibleIS4_ESt18is_move_assignableIS4_EEE5valueEvE4typeERS4_SD_
	.cfi_endproc
                                        # -- End function
	.section	.text._ZSt4moveIRPfEONSt16remove_referenceIT_E4typeEOS3_,"axG",@progbits,_ZSt4moveIRPfEONSt16remove_referenceIT_E4typeEOS3_,comdat
	.weak	_ZSt4moveIRPfEONSt16remove_referenceIT_E4typeEOS3_ # -- Begin function _ZSt4moveIRPfEONSt16remove_referenceIT_E4typeEOS3_
	.p2align	4, 0x90
	.type	_ZSt4moveIRPfEONSt16remove_referenceIT_E4typeEOS3_,@function
_ZSt4moveIRPfEONSt16remove_referenceIT_E4typeEOS3_: # @_ZSt4moveIRPfEONSt16remove_referenceIT_E4typeEOS3_
	.cfi_startproc
# %bb.0:                                # %entry
	pushq	%rbp
	.cfi_def_cfa_offset 16
	.cfi_offset %rbp, -16
	movq	%rsp, %rbp
	.cfi_def_cfa_register %rbp
	movq	%rdi, -8(%rbp)
	movq	-8(%rbp), %rax
	popq	%rbp
	.cfi_def_cfa %rsp, 8
	retq
.Lfunc_end48:
	.size	_ZSt4moveIRPfEONSt16remove_referenceIT_E4typeEOS3_, .Lfunc_end48-_ZSt4moveIRPfEONSt16remove_referenceIT_E4typeEOS3_
	.cfi_endproc
                                        # -- End function
	.section	.text._ZSt18__do_alloc_on_moveISaIfEEvRT_S2_St17integral_constantIbLb1EE,"axG",@progbits,_ZSt18__do_alloc_on_moveISaIfEEvRT_S2_St17integral_constantIbLb1EE,comdat
	.weak	_ZSt18__do_alloc_on_moveISaIfEEvRT_S2_St17integral_constantIbLb1EE # -- Begin function _ZSt18__do_alloc_on_moveISaIfEEvRT_S2_St17integral_constantIbLb1EE
	.p2align	4, 0x90
	.type	_ZSt18__do_alloc_on_moveISaIfEEvRT_S2_St17integral_constantIbLb1EE,@function
_ZSt18__do_alloc_on_moveISaIfEEvRT_S2_St17integral_constantIbLb1EE: # @_ZSt18__do_alloc_on_moveISaIfEEvRT_S2_St17integral_constantIbLb1EE
	.cfi_startproc
# %bb.0:                                # %entry
	pushq	%rbp
	.cfi_def_cfa_offset 16
	.cfi_offset %rbp, -16
	movq	%rsp, %rbp
	.cfi_def_cfa_register %rbp
	subq	$32, %rsp
	movq	%rdi, -16(%rbp)
	movq	%rsi, -24(%rbp)
	movq	-24(%rbp), %rdi
	callq	_ZSt4moveIRSaIfEEONSt16remove_referenceIT_E4typeEOS3_
	movq	%rax, -32(%rbp)         # 8-byte Spill
	addq	$32, %rsp
	popq	%rbp
	.cfi_def_cfa %rsp, 8
	retq
.Lfunc_end49:
	.size	_ZSt18__do_alloc_on_moveISaIfEEvRT_S2_St17integral_constantIbLb1EE, .Lfunc_end49-_ZSt18__do_alloc_on_moveISaIfEEvRT_S2_St17integral_constantIbLb1EE
	.cfi_endproc
                                        # -- End function
	.section	.text._ZSt4moveIRSaIfEEONSt16remove_referenceIT_E4typeEOS3_,"axG",@progbits,_ZSt4moveIRSaIfEEONSt16remove_referenceIT_E4typeEOS3_,comdat
	.weak	_ZSt4moveIRSaIfEEONSt16remove_referenceIT_E4typeEOS3_ # -- Begin function _ZSt4moveIRSaIfEEONSt16remove_referenceIT_E4typeEOS3_
	.p2align	4, 0x90
	.type	_ZSt4moveIRSaIfEEONSt16remove_referenceIT_E4typeEOS3_,@function
_ZSt4moveIRSaIfEEONSt16remove_referenceIT_E4typeEOS3_: # @_ZSt4moveIRSaIfEEONSt16remove_referenceIT_E4typeEOS3_
	.cfi_startproc
# %bb.0:                                # %entry
	pushq	%rbp
	.cfi_def_cfa_offset 16
	.cfi_offset %rbp, -16
	movq	%rsp, %rbp
	.cfi_def_cfa_register %rbp
	movq	%rdi, -8(%rbp)
	movq	-8(%rbp), %rax
	popq	%rbp
	.cfi_def_cfa %rsp, 8
	retq
.Lfunc_end50:
	.size	_ZSt4moveIRSaIfEEONSt16remove_referenceIT_E4typeEOS3_, .Lfunc_end50-_ZSt4moveIRSaIfEEONSt16remove_referenceIT_E4typeEOS3_
	.cfi_endproc
                                        # -- End function
	.section	.text._ZSt8_DestroyIPffEvT_S1_RSaIT0_E,"axG",@progbits,_ZSt8_DestroyIPffEvT_S1_RSaIT0_E,comdat
	.weak	_ZSt8_DestroyIPffEvT_S1_RSaIT0_E # -- Begin function _ZSt8_DestroyIPffEvT_S1_RSaIT0_E
	.p2align	4, 0x90
	.type	_ZSt8_DestroyIPffEvT_S1_RSaIT0_E,@function
_ZSt8_DestroyIPffEvT_S1_RSaIT0_E:       # @_ZSt8_DestroyIPffEvT_S1_RSaIT0_E
	.cfi_startproc
# %bb.0:                                # %entry
	pushq	%rbp
	.cfi_def_cfa_offset 16
	.cfi_offset %rbp, -16
	movq	%rsp, %rbp
	.cfi_def_cfa_register %rbp
	subq	$32, %rsp
	movq	%rdi, -8(%rbp)
	movq	%rsi, -16(%rbp)
	movq	%rdx, -24(%rbp)
	movq	-8(%rbp), %rdi
	movq	-16(%rbp), %rsi
	callq	_ZSt8_DestroyIPfEvT_S1_
	addq	$32, %rsp
	popq	%rbp
	.cfi_def_cfa %rsp, 8
	retq
.Lfunc_end51:
	.size	_ZSt8_DestroyIPffEvT_S1_RSaIT0_E, .Lfunc_end51-_ZSt8_DestroyIPffEvT_S1_RSaIT0_E
	.cfi_endproc
                                        # -- End function
	.section	.text._ZNSt12_Vector_baseIfSaIfEED2Ev,"axG",@progbits,_ZNSt12_Vector_baseIfSaIfEED2Ev,comdat
	.weak	_ZNSt12_Vector_baseIfSaIfEED2Ev # -- Begin function _ZNSt12_Vector_baseIfSaIfEED2Ev
	.p2align	4, 0x90
	.type	_ZNSt12_Vector_baseIfSaIfEED2Ev,@function
_ZNSt12_Vector_baseIfSaIfEED2Ev:        # @_ZNSt12_Vector_baseIfSaIfEED2Ev
.Lfunc_begin8:
	.cfi_startproc
	.cfi_personality 3, __gxx_personality_v0
	.cfi_lsda 3, .Lexception8
# %bb.0:                                # %entry
	pushq	%rbp
	.cfi_def_cfa_offset 16
	.cfi_offset %rbp, -16
	movq	%rsp, %rbp
	.cfi_def_cfa_register %rbp
	subq	$32, %rsp
	movq	%rdi, -8(%rbp)
	movq	-8(%rbp), %rdi
	movq	(%rdi), %rax
	movq	16(%rdi), %rcx
	subq	%rax, %rcx
	sarq	$2, %rcx
.Ltmp231:
	movq	%rdi, -32(%rbp)         # 8-byte Spill
	movq	%rax, %rsi
	movq	%rcx, %rdx
	callq	_ZNSt12_Vector_baseIfSaIfEE13_M_deallocateEPfm
.Ltmp232:
	jmp	.LBB52_1
.LBB52_1:                               # %invoke.cont
	movq	-32(%rbp), %rdi         # 8-byte Reload
	callq	_ZNSt12_Vector_baseIfSaIfEE12_Vector_implD2Ev
	addq	$32, %rsp
	popq	%rbp
	.cfi_def_cfa %rsp, 8
	retq
.LBB52_2:                               # %lpad
	.cfi_def_cfa %rbp, 16
.Ltmp233:
	movl	%edx, %ecx
	movq	%rax, -16(%rbp)
	movl	%ecx, -20(%rbp)
	movq	-32(%rbp), %rdi         # 8-byte Reload
	callq	_ZNSt12_Vector_baseIfSaIfEE12_Vector_implD2Ev
# %bb.3:                                # %terminate.handler
	movq	-16(%rbp), %rdi
	callq	__clang_call_terminate
.Lfunc_end52:
	.size	_ZNSt12_Vector_baseIfSaIfEED2Ev, .Lfunc_end52-_ZNSt12_Vector_baseIfSaIfEED2Ev
	.cfi_endproc
	.section	.gcc_except_table,"a",@progbits
	.p2align	2
GCC_except_table52:
.Lexception8:
	.byte	255                     # @LPStart Encoding = omit
	.byte	3                       # @TType Encoding = udata4
	.uleb128 .Lttbase4-.Lttbaseref4
.Lttbaseref4:
	.byte	1                       # Call site Encoding = uleb128
	.uleb128 .Lcst_end8-.Lcst_begin8
.Lcst_begin8:
	.uleb128 .Ltmp231-.Lfunc_begin8 # >> Call Site 1 <<
	.uleb128 .Ltmp232-.Ltmp231      #   Call between .Ltmp231 and .Ltmp232
	.uleb128 .Ltmp233-.Lfunc_begin8 #     jumps to .Ltmp233
	.byte	1                       #   On action: 1
.Lcst_end8:
	.byte	1                       # >> Action Record 1 <<
                                        #   Catch TypeInfo 1
	.byte	0                       #   No further actions
	.p2align	2
                                        # >> Catch TypeInfos <<
	.long	0                       # TypeInfo 1
.Lttbase4:
	.p2align	2
                                        # -- End function
	.section	.text._ZSt8_DestroyIPfEvT_S1_,"axG",@progbits,_ZSt8_DestroyIPfEvT_S1_,comdat
	.weak	_ZSt8_DestroyIPfEvT_S1_ # -- Begin function _ZSt8_DestroyIPfEvT_S1_
	.p2align	4, 0x90
	.type	_ZSt8_DestroyIPfEvT_S1_,@function
_ZSt8_DestroyIPfEvT_S1_:                # @_ZSt8_DestroyIPfEvT_S1_
	.cfi_startproc
# %bb.0:                                # %entry
	pushq	%rbp
	.cfi_def_cfa_offset 16
	.cfi_offset %rbp, -16
	movq	%rsp, %rbp
	.cfi_def_cfa_register %rbp
	subq	$16, %rsp
	movq	%rdi, -8(%rbp)
	movq	%rsi, -16(%rbp)
	movq	-8(%rbp), %rdi
	movq	-16(%rbp), %rsi
	callq	_ZNSt12_Destroy_auxILb1EE9__destroyIPfEEvT_S3_
	addq	$16, %rsp
	popq	%rbp
	.cfi_def_cfa %rsp, 8
	retq
.Lfunc_end53:
	.size	_ZSt8_DestroyIPfEvT_S1_, .Lfunc_end53-_ZSt8_DestroyIPfEvT_S1_
	.cfi_endproc
                                        # -- End function
	.section	.text._ZNSt12_Destroy_auxILb1EE9__destroyIPfEEvT_S3_,"axG",@progbits,_ZNSt12_Destroy_auxILb1EE9__destroyIPfEEvT_S3_,comdat
	.weak	_ZNSt12_Destroy_auxILb1EE9__destroyIPfEEvT_S3_ # -- Begin function _ZNSt12_Destroy_auxILb1EE9__destroyIPfEEvT_S3_
	.p2align	4, 0x90
	.type	_ZNSt12_Destroy_auxILb1EE9__destroyIPfEEvT_S3_,@function
_ZNSt12_Destroy_auxILb1EE9__destroyIPfEEvT_S3_: # @_ZNSt12_Destroy_auxILb1EE9__destroyIPfEEvT_S3_
	.cfi_startproc
# %bb.0:                                # %entry
	pushq	%rbp
	.cfi_def_cfa_offset 16
	.cfi_offset %rbp, -16
	movq	%rsp, %rbp
	.cfi_def_cfa_register %rbp
	movq	%rdi, -8(%rbp)
	movq	%rsi, -16(%rbp)
	popq	%rbp
	.cfi_def_cfa %rsp, 8
	retq
.Lfunc_end54:
	.size	_ZNSt12_Destroy_auxILb1EE9__destroyIPfEEvT_S3_, .Lfunc_end54-_ZNSt12_Destroy_auxILb1EE9__destroyIPfEEvT_S3_
	.cfi_endproc
                                        # -- End function
	.section	.text._ZNSt12_Vector_baseIfSaIfEE13_M_deallocateEPfm,"axG",@progbits,_ZNSt12_Vector_baseIfSaIfEE13_M_deallocateEPfm,comdat
	.weak	_ZNSt12_Vector_baseIfSaIfEE13_M_deallocateEPfm # -- Begin function _ZNSt12_Vector_baseIfSaIfEE13_M_deallocateEPfm
	.p2align	4, 0x90
	.type	_ZNSt12_Vector_baseIfSaIfEE13_M_deallocateEPfm,@function
_ZNSt12_Vector_baseIfSaIfEE13_M_deallocateEPfm: # @_ZNSt12_Vector_baseIfSaIfEE13_M_deallocateEPfm
	.cfi_startproc
# %bb.0:                                # %entry
	pushq	%rbp
	.cfi_def_cfa_offset 16
	.cfi_offset %rbp, -16
	movq	%rsp, %rbp
	.cfi_def_cfa_register %rbp
	subq	$32, %rsp
	movq	%rdi, -8(%rbp)
	movq	%rsi, -16(%rbp)
	movq	%rdx, -24(%rbp)
	movq	-8(%rbp), %rdx
	cmpq	$0, -16(%rbp)
	movq	%rdx, -32(%rbp)         # 8-byte Spill
	je	.LBB55_2
# %bb.1:                                # %if.then
	movq	-32(%rbp), %rax         # 8-byte Reload
	movq	-16(%rbp), %rsi
	movq	-24(%rbp), %rdx
	movq	%rax, %rdi
	callq	_ZNSt16allocator_traitsISaIfEE10deallocateERS0_Pfm
.LBB55_2:                               # %if.end
	addq	$32, %rsp
	popq	%rbp
	.cfi_def_cfa %rsp, 8
	retq
.Lfunc_end55:
	.size	_ZNSt12_Vector_baseIfSaIfEE13_M_deallocateEPfm, .Lfunc_end55-_ZNSt12_Vector_baseIfSaIfEE13_M_deallocateEPfm
	.cfi_endproc
                                        # -- End function
	.section	.text._ZNSt12_Vector_baseIfSaIfEE12_Vector_implD2Ev,"axG",@progbits,_ZNSt12_Vector_baseIfSaIfEE12_Vector_implD2Ev,comdat
	.weak	_ZNSt12_Vector_baseIfSaIfEE12_Vector_implD2Ev # -- Begin function _ZNSt12_Vector_baseIfSaIfEE12_Vector_implD2Ev
	.p2align	4, 0x90
	.type	_ZNSt12_Vector_baseIfSaIfEE12_Vector_implD2Ev,@function
_ZNSt12_Vector_baseIfSaIfEE12_Vector_implD2Ev: # @_ZNSt12_Vector_baseIfSaIfEE12_Vector_implD2Ev
	.cfi_startproc
# %bb.0:                                # %entry
	pushq	%rbp
	.cfi_def_cfa_offset 16
	.cfi_offset %rbp, -16
	movq	%rsp, %rbp
	.cfi_def_cfa_register %rbp
	subq	$16, %rsp
	movq	%rdi, -8(%rbp)
	movq	-8(%rbp), %rdi
	callq	_ZNSaIfED2Ev
	addq	$16, %rsp
	popq	%rbp
	.cfi_def_cfa %rsp, 8
	retq
.Lfunc_end56:
	.size	_ZNSt12_Vector_baseIfSaIfEE12_Vector_implD2Ev, .Lfunc_end56-_ZNSt12_Vector_baseIfSaIfEE12_Vector_implD2Ev
	.cfi_endproc
                                        # -- End function
	.section	.text._ZNSt16allocator_traitsISaIfEE10deallocateERS0_Pfm,"axG",@progbits,_ZNSt16allocator_traitsISaIfEE10deallocateERS0_Pfm,comdat
	.weak	_ZNSt16allocator_traitsISaIfEE10deallocateERS0_Pfm # -- Begin function _ZNSt16allocator_traitsISaIfEE10deallocateERS0_Pfm
	.p2align	4, 0x90
	.type	_ZNSt16allocator_traitsISaIfEE10deallocateERS0_Pfm,@function
_ZNSt16allocator_traitsISaIfEE10deallocateERS0_Pfm: # @_ZNSt16allocator_traitsISaIfEE10deallocateERS0_Pfm
	.cfi_startproc
# %bb.0:                                # %entry
	pushq	%rbp
	.cfi_def_cfa_offset 16
	.cfi_offset %rbp, -16
	movq	%rsp, %rbp
	.cfi_def_cfa_register %rbp
	subq	$32, %rsp
	movq	%rdi, -8(%rbp)
	movq	%rsi, -16(%rbp)
	movq	%rdx, -24(%rbp)
	movq	-8(%rbp), %rdx
	movq	-16(%rbp), %rsi
	movq	-24(%rbp), %rdi
	movq	%rdi, -32(%rbp)         # 8-byte Spill
	movq	%rdx, %rdi
	movq	-32(%rbp), %rdx         # 8-byte Reload
	callq	_ZN9__gnu_cxx13new_allocatorIfE10deallocateEPfm
	addq	$32, %rsp
	popq	%rbp
	.cfi_def_cfa %rsp, 8
	retq
.Lfunc_end57:
	.size	_ZNSt16allocator_traitsISaIfEE10deallocateERS0_Pfm, .Lfunc_end57-_ZNSt16allocator_traitsISaIfEE10deallocateERS0_Pfm
	.cfi_endproc
                                        # -- End function
	.section	.text._ZN9__gnu_cxx13new_allocatorIfE10deallocateEPfm,"axG",@progbits,_ZN9__gnu_cxx13new_allocatorIfE10deallocateEPfm,comdat
	.weak	_ZN9__gnu_cxx13new_allocatorIfE10deallocateEPfm # -- Begin function _ZN9__gnu_cxx13new_allocatorIfE10deallocateEPfm
	.p2align	4, 0x90
	.type	_ZN9__gnu_cxx13new_allocatorIfE10deallocateEPfm,@function
_ZN9__gnu_cxx13new_allocatorIfE10deallocateEPfm: # @_ZN9__gnu_cxx13new_allocatorIfE10deallocateEPfm
	.cfi_startproc
# %bb.0:                                # %entry
	pushq	%rbp
	.cfi_def_cfa_offset 16
	.cfi_offset %rbp, -16
	movq	%rsp, %rbp
	.cfi_def_cfa_register %rbp
	subq	$32, %rsp
	movq	%rdi, -8(%rbp)
	movq	%rsi, -16(%rbp)
	movq	%rdx, -24(%rbp)
	movq	-16(%rbp), %rdx
	movq	%rdx, %rdi
	callq	_ZdlPv
	addq	$32, %rsp
	popq	%rbp
	.cfi_def_cfa %rsp, 8
	retq
.Lfunc_end58:
	.size	_ZN9__gnu_cxx13new_allocatorIfE10deallocateEPfm, .Lfunc_end58-_ZN9__gnu_cxx13new_allocatorIfE10deallocateEPfm
	.cfi_endproc
                                        # -- End function
	.section	.text._ZNSt6vectorIiSaIiEE14_M_move_assignEOS1_St17integral_constantIbLb1EE,"axG",@progbits,_ZNSt6vectorIiSaIiEE14_M_move_assignEOS1_St17integral_constantIbLb1EE,comdat
	.weak	_ZNSt6vectorIiSaIiEE14_M_move_assignEOS1_St17integral_constantIbLb1EE # -- Begin function _ZNSt6vectorIiSaIiEE14_M_move_assignEOS1_St17integral_constantIbLb1EE
	.p2align	4, 0x90
	.type	_ZNSt6vectorIiSaIiEE14_M_move_assignEOS1_St17integral_constantIbLb1EE,@function
_ZNSt6vectorIiSaIiEE14_M_move_assignEOS1_St17integral_constantIbLb1EE: # @_ZNSt6vectorIiSaIiEE14_M_move_assignEOS1_St17integral_constantIbLb1EE
.Lfunc_begin9:
	.cfi_startproc
	.cfi_personality 3, __gxx_personality_v0
	.cfi_lsda 3, .Lexception9
# %bb.0:                                # %entry
	pushq	%rbp
	.cfi_def_cfa_offset 16
	.cfi_offset %rbp, -16
	movq	%rsp, %rbp
	.cfi_def_cfa_register %rbp
	subq	$112, %rsp
	movq	%rdi, -16(%rbp)
	movq	%rsi, -24(%rbp)
	movq	-16(%rbp), %rsi
	leaq	-56(%rbp), %rdi
	movq	%rdi, -80(%rbp)         # 8-byte Spill
	movq	%rsi, -88(%rbp)         # 8-byte Spill
	callq	_ZNKSt12_Vector_baseIiSaIiEE13get_allocatorEv
	leaq	-48(%rbp), %rsi
	movq	%rsi, %rdi
	movq	-80(%rbp), %rax         # 8-byte Reload
	movq	%rsi, -96(%rbp)         # 8-byte Spill
	movq	%rax, %rsi
	callq	_ZNSt6vectorIiSaIiEEC2ERKS0_
	movq	-80(%rbp), %rdi         # 8-byte Reload
	callq	_ZNSaIiED2Ev
	movq	-88(%rbp), %rdi         # 8-byte Reload
	movq	-96(%rbp), %rsi         # 8-byte Reload
	callq	_ZNSt12_Vector_baseIiSaIiEE12_Vector_impl12_M_swap_dataERS2_
	movq	-24(%rbp), %rsi
	movq	-88(%rbp), %rdi         # 8-byte Reload
	callq	_ZNSt12_Vector_baseIiSaIiEE12_Vector_impl12_M_swap_dataERS2_
	movq	-88(%rbp), %rdi         # 8-byte Reload
	callq	_ZNSt12_Vector_baseIiSaIiEE19_M_get_Tp_allocatorEv
	movq	-24(%rbp), %rdi
	movq	%rax, -104(%rbp)        # 8-byte Spill
	callq	_ZNSt12_Vector_baseIiSaIiEE19_M_get_Tp_allocatorEv
.Ltmp234:
	movq	-104(%rbp), %rdi        # 8-byte Reload
	movq	%rax, %rsi
	callq	_ZSt15__alloc_on_moveISaIiEEvRT_S2_
.Ltmp235:
	jmp	.LBB59_1
.LBB59_1:                               # %invoke.cont
	leaq	-48(%rbp), %rdi
	callq	_ZNSt6vectorIiSaIiEED2Ev
	addq	$112, %rsp
	popq	%rbp
	.cfi_def_cfa %rsp, 8
	retq
.LBB59_2:                               # %lpad
	.cfi_def_cfa %rbp, 16
.Ltmp236:
	movl	%edx, %ecx
	movq	%rax, -64(%rbp)
	movl	%ecx, -68(%rbp)
	leaq	-48(%rbp), %rdi
	callq	_ZNSt6vectorIiSaIiEED2Ev
# %bb.3:                                # %terminate.handler
	movq	-64(%rbp), %rdi
	callq	__clang_call_terminate
.Lfunc_end59:
	.size	_ZNSt6vectorIiSaIiEE14_M_move_assignEOS1_St17integral_constantIbLb1EE, .Lfunc_end59-_ZNSt6vectorIiSaIiEE14_M_move_assignEOS1_St17integral_constantIbLb1EE
	.cfi_endproc
	.section	.gcc_except_table,"a",@progbits
	.p2align	2
GCC_except_table59:
.Lexception9:
	.byte	255                     # @LPStart Encoding = omit
	.byte	3                       # @TType Encoding = udata4
	.uleb128 .Lttbase5-.Lttbaseref5
.Lttbaseref5:
	.byte	1                       # Call site Encoding = uleb128
	.uleb128 .Lcst_end9-.Lcst_begin9
.Lcst_begin9:
	.uleb128 .Ltmp234-.Lfunc_begin9 # >> Call Site 1 <<
	.uleb128 .Ltmp235-.Ltmp234      #   Call between .Ltmp234 and .Ltmp235
	.uleb128 .Ltmp236-.Lfunc_begin9 #     jumps to .Ltmp236
	.byte	1                       #   On action: 1
.Lcst_end9:
	.byte	1                       # >> Action Record 1 <<
                                        #   Catch TypeInfo 1
	.byte	0                       #   No further actions
	.p2align	2
                                        # >> Catch TypeInfos <<
	.long	0                       # TypeInfo 1
.Lttbase5:
	.p2align	2
                                        # -- End function
	.section	.text._ZSt4moveIRSt6vectorIiSaIiEEEONSt16remove_referenceIT_E4typeEOS5_,"axG",@progbits,_ZSt4moveIRSt6vectorIiSaIiEEEONSt16remove_referenceIT_E4typeEOS5_,comdat
	.weak	_ZSt4moveIRSt6vectorIiSaIiEEEONSt16remove_referenceIT_E4typeEOS5_ # -- Begin function _ZSt4moveIRSt6vectorIiSaIiEEEONSt16remove_referenceIT_E4typeEOS5_
	.p2align	4, 0x90
	.type	_ZSt4moveIRSt6vectorIiSaIiEEEONSt16remove_referenceIT_E4typeEOS5_,@function
_ZSt4moveIRSt6vectorIiSaIiEEEONSt16remove_referenceIT_E4typeEOS5_: # @_ZSt4moveIRSt6vectorIiSaIiEEEONSt16remove_referenceIT_E4typeEOS5_
	.cfi_startproc
# %bb.0:                                # %entry
	pushq	%rbp
	.cfi_def_cfa_offset 16
	.cfi_offset %rbp, -16
	movq	%rsp, %rbp
	.cfi_def_cfa_register %rbp
	movq	%rdi, -8(%rbp)
	movq	-8(%rbp), %rax
	popq	%rbp
	.cfi_def_cfa %rsp, 8
	retq
.Lfunc_end60:
	.size	_ZSt4moveIRSt6vectorIiSaIiEEEONSt16remove_referenceIT_E4typeEOS5_, .Lfunc_end60-_ZSt4moveIRSt6vectorIiSaIiEEEONSt16remove_referenceIT_E4typeEOS5_
	.cfi_endproc
                                        # -- End function
	.section	.text._ZNKSt12_Vector_baseIiSaIiEE13get_allocatorEv,"axG",@progbits,_ZNKSt12_Vector_baseIiSaIiEE13get_allocatorEv,comdat
	.weak	_ZNKSt12_Vector_baseIiSaIiEE13get_allocatorEv # -- Begin function _ZNKSt12_Vector_baseIiSaIiEE13get_allocatorEv
	.p2align	4, 0x90
	.type	_ZNKSt12_Vector_baseIiSaIiEE13get_allocatorEv,@function
_ZNKSt12_Vector_baseIiSaIiEE13get_allocatorEv: # @_ZNKSt12_Vector_baseIiSaIiEE13get_allocatorEv
	.cfi_startproc
# %bb.0:                                # %entry
	pushq	%rbp
	.cfi_def_cfa_offset 16
	.cfi_offset %rbp, -16
	movq	%rsp, %rbp
	.cfi_def_cfa_register %rbp
	subq	$32, %rsp
	movq	%rdi, %rax
	movq	%rsi, -8(%rbp)
	movq	-8(%rbp), %rsi
	movq	%rdi, -16(%rbp)         # 8-byte Spill
	movq	%rsi, %rdi
	movq	%rax, -24(%rbp)         # 8-byte Spill
	callq	_ZNKSt12_Vector_baseIiSaIiEE19_M_get_Tp_allocatorEv
	movq	-16(%rbp), %rdi         # 8-byte Reload
	movq	%rax, %rsi
	callq	_ZNSaIiEC2ERKS_
	movq	-24(%rbp), %rax         # 8-byte Reload
	addq	$32, %rsp
	popq	%rbp
	.cfi_def_cfa %rsp, 8
	retq
.Lfunc_end61:
	.size	_ZNKSt12_Vector_baseIiSaIiEE13get_allocatorEv, .Lfunc_end61-_ZNKSt12_Vector_baseIiSaIiEE13get_allocatorEv
	.cfi_endproc
                                        # -- End function
	.section	.text._ZNSt6vectorIiSaIiEEC2ERKS0_,"axG",@progbits,_ZNSt6vectorIiSaIiEEC2ERKS0_,comdat
	.weak	_ZNSt6vectorIiSaIiEEC2ERKS0_ # -- Begin function _ZNSt6vectorIiSaIiEEC2ERKS0_
	.p2align	4, 0x90
	.type	_ZNSt6vectorIiSaIiEEC2ERKS0_,@function
_ZNSt6vectorIiSaIiEEC2ERKS0_:           # @_ZNSt6vectorIiSaIiEEC2ERKS0_
	.cfi_startproc
# %bb.0:                                # %entry
	pushq	%rbp
	.cfi_def_cfa_offset 16
	.cfi_offset %rbp, -16
	movq	%rsp, %rbp
	.cfi_def_cfa_register %rbp
	subq	$32, %rsp
	movq	%rdi, -8(%rbp)
	movq	%rsi, -16(%rbp)
	movq	-8(%rbp), %rsi
	movq	-16(%rbp), %rdi
	movq	%rdi, -24(%rbp)         # 8-byte Spill
	movq	%rsi, %rdi
	movq	-24(%rbp), %rsi         # 8-byte Reload
	callq	_ZNSt12_Vector_baseIiSaIiEEC2ERKS0_
	addq	$32, %rsp
	popq	%rbp
	.cfi_def_cfa %rsp, 8
	retq
.Lfunc_end62:
	.size	_ZNSt6vectorIiSaIiEEC2ERKS0_, .Lfunc_end62-_ZNSt6vectorIiSaIiEEC2ERKS0_
	.cfi_endproc
                                        # -- End function
	.section	.text._ZNSt12_Vector_baseIiSaIiEE12_Vector_impl12_M_swap_dataERS2_,"axG",@progbits,_ZNSt12_Vector_baseIiSaIiEE12_Vector_impl12_M_swap_dataERS2_,comdat
	.weak	_ZNSt12_Vector_baseIiSaIiEE12_Vector_impl12_M_swap_dataERS2_ # -- Begin function _ZNSt12_Vector_baseIiSaIiEE12_Vector_impl12_M_swap_dataERS2_
	.p2align	4, 0x90
	.type	_ZNSt12_Vector_baseIiSaIiEE12_Vector_impl12_M_swap_dataERS2_,@function
_ZNSt12_Vector_baseIiSaIiEE12_Vector_impl12_M_swap_dataERS2_: # @_ZNSt12_Vector_baseIiSaIiEE12_Vector_impl12_M_swap_dataERS2_
	.cfi_startproc
# %bb.0:                                # %entry
	pushq	%rbp
	.cfi_def_cfa_offset 16
	.cfi_offset %rbp, -16
	movq	%rsp, %rbp
	.cfi_def_cfa_register %rbp
	subq	$32, %rsp
	movq	%rdi, -8(%rbp)
	movq	%rsi, -16(%rbp)
	movq	-8(%rbp), %rsi
	movq	-16(%rbp), %rdi
	movq	%rdi, -24(%rbp)         # 8-byte Spill
	movq	%rsi, %rdi
	movq	-24(%rbp), %rax         # 8-byte Reload
	movq	%rsi, -32(%rbp)         # 8-byte Spill
	movq	%rax, %rsi
	callq	_ZSt4swapIPiENSt9enable_ifIXsr6__and_ISt6__not_ISt15__is_tuple_likeIT_EESt21is_move_constructibleIS4_ESt18is_move_assignableIS4_EEE5valueEvE4typeERS4_SD_
	movq	-32(%rbp), %rax         # 8-byte Reload
	addq	$8, %rax
	movq	-16(%rbp), %rsi
	addq	$8, %rsi
	movq	%rax, %rdi
	callq	_ZSt4swapIPiENSt9enable_ifIXsr6__and_ISt6__not_ISt15__is_tuple_likeIT_EESt21is_move_constructibleIS4_ESt18is_move_assignableIS4_EEE5valueEvE4typeERS4_SD_
	movq	-32(%rbp), %rax         # 8-byte Reload
	addq	$16, %rax
	movq	-16(%rbp), %rsi
	addq	$16, %rsi
	movq	%rax, %rdi
	callq	_ZSt4swapIPiENSt9enable_ifIXsr6__and_ISt6__not_ISt15__is_tuple_likeIT_EESt21is_move_constructibleIS4_ESt18is_move_assignableIS4_EEE5valueEvE4typeERS4_SD_
	addq	$32, %rsp
	popq	%rbp
	.cfi_def_cfa %rsp, 8
	retq
.Lfunc_end63:
	.size	_ZNSt12_Vector_baseIiSaIiEE12_Vector_impl12_M_swap_dataERS2_, .Lfunc_end63-_ZNSt12_Vector_baseIiSaIiEE12_Vector_impl12_M_swap_dataERS2_
	.cfi_endproc
                                        # -- End function
	.section	.text._ZSt15__alloc_on_moveISaIiEEvRT_S2_,"axG",@progbits,_ZSt15__alloc_on_moveISaIiEEvRT_S2_,comdat
	.weak	_ZSt15__alloc_on_moveISaIiEEvRT_S2_ # -- Begin function _ZSt15__alloc_on_moveISaIiEEvRT_S2_
	.p2align	4, 0x90
	.type	_ZSt15__alloc_on_moveISaIiEEvRT_S2_,@function
_ZSt15__alloc_on_moveISaIiEEvRT_S2_:    # @_ZSt15__alloc_on_moveISaIiEEvRT_S2_
	.cfi_startproc
# %bb.0:                                # %entry
	pushq	%rbp
	.cfi_def_cfa_offset 16
	.cfi_offset %rbp, -16
	movq	%rsp, %rbp
	.cfi_def_cfa_register %rbp
	subq	$32, %rsp
	movq	%rdi, -8(%rbp)
	movq	%rsi, -16(%rbp)
	movq	-8(%rbp), %rdi
	movq	-16(%rbp), %rsi
	callq	_ZSt18__do_alloc_on_moveISaIiEEvRT_S2_St17integral_constantIbLb1EE
	addq	$32, %rsp
	popq	%rbp
	.cfi_def_cfa %rsp, 8
	retq
.Lfunc_end64:
	.size	_ZSt15__alloc_on_moveISaIiEEvRT_S2_, .Lfunc_end64-_ZSt15__alloc_on_moveISaIiEEvRT_S2_
	.cfi_endproc
                                        # -- End function
	.section	.text._ZNSt12_Vector_baseIiSaIiEE19_M_get_Tp_allocatorEv,"axG",@progbits,_ZNSt12_Vector_baseIiSaIiEE19_M_get_Tp_allocatorEv,comdat
	.weak	_ZNSt12_Vector_baseIiSaIiEE19_M_get_Tp_allocatorEv # -- Begin function _ZNSt12_Vector_baseIiSaIiEE19_M_get_Tp_allocatorEv
	.p2align	4, 0x90
	.type	_ZNSt12_Vector_baseIiSaIiEE19_M_get_Tp_allocatorEv,@function
_ZNSt12_Vector_baseIiSaIiEE19_M_get_Tp_allocatorEv: # @_ZNSt12_Vector_baseIiSaIiEE19_M_get_Tp_allocatorEv
	.cfi_startproc
# %bb.0:                                # %entry
	pushq	%rbp
	.cfi_def_cfa_offset 16
	.cfi_offset %rbp, -16
	movq	%rsp, %rbp
	.cfi_def_cfa_register %rbp
	movq	%rdi, -8(%rbp)
	movq	-8(%rbp), %rdi
	movq	%rdi, %rax
	popq	%rbp
	.cfi_def_cfa %rsp, 8
	retq
.Lfunc_end65:
	.size	_ZNSt12_Vector_baseIiSaIiEE19_M_get_Tp_allocatorEv, .Lfunc_end65-_ZNSt12_Vector_baseIiSaIiEE19_M_get_Tp_allocatorEv
	.cfi_endproc
                                        # -- End function
	.section	.text._ZNKSt12_Vector_baseIiSaIiEE19_M_get_Tp_allocatorEv,"axG",@progbits,_ZNKSt12_Vector_baseIiSaIiEE19_M_get_Tp_allocatorEv,comdat
	.weak	_ZNKSt12_Vector_baseIiSaIiEE19_M_get_Tp_allocatorEv # -- Begin function _ZNKSt12_Vector_baseIiSaIiEE19_M_get_Tp_allocatorEv
	.p2align	4, 0x90
	.type	_ZNKSt12_Vector_baseIiSaIiEE19_M_get_Tp_allocatorEv,@function
_ZNKSt12_Vector_baseIiSaIiEE19_M_get_Tp_allocatorEv: # @_ZNKSt12_Vector_baseIiSaIiEE19_M_get_Tp_allocatorEv
	.cfi_startproc
# %bb.0:                                # %entry
	pushq	%rbp
	.cfi_def_cfa_offset 16
	.cfi_offset %rbp, -16
	movq	%rsp, %rbp
	.cfi_def_cfa_register %rbp
	movq	%rdi, -8(%rbp)
	movq	-8(%rbp), %rdi
	movq	%rdi, %rax
	popq	%rbp
	.cfi_def_cfa %rsp, 8
	retq
.Lfunc_end66:
	.size	_ZNKSt12_Vector_baseIiSaIiEE19_M_get_Tp_allocatorEv, .Lfunc_end66-_ZNKSt12_Vector_baseIiSaIiEE19_M_get_Tp_allocatorEv
	.cfi_endproc
                                        # -- End function
	.section	.text._ZNSaIiEC2ERKS_,"axG",@progbits,_ZNSaIiEC2ERKS_,comdat
	.weak	_ZNSaIiEC2ERKS_         # -- Begin function _ZNSaIiEC2ERKS_
	.p2align	4, 0x90
	.type	_ZNSaIiEC2ERKS_,@function
_ZNSaIiEC2ERKS_:                        # @_ZNSaIiEC2ERKS_
	.cfi_startproc
# %bb.0:                                # %entry
	pushq	%rbp
	.cfi_def_cfa_offset 16
	.cfi_offset %rbp, -16
	movq	%rsp, %rbp
	.cfi_def_cfa_register %rbp
	subq	$32, %rsp
	movq	%rdi, -8(%rbp)
	movq	%rsi, -16(%rbp)
	movq	-8(%rbp), %rsi
	movq	-16(%rbp), %rdi
	movq	%rdi, -24(%rbp)         # 8-byte Spill
	movq	%rsi, %rdi
	movq	-24(%rbp), %rsi         # 8-byte Reload
	callq	_ZN9__gnu_cxx13new_allocatorIiEC2ERKS1_
	addq	$32, %rsp
	popq	%rbp
	.cfi_def_cfa %rsp, 8
	retq
.Lfunc_end67:
	.size	_ZNSaIiEC2ERKS_, .Lfunc_end67-_ZNSaIiEC2ERKS_
	.cfi_endproc
                                        # -- End function
	.section	.text._ZN9__gnu_cxx13new_allocatorIiEC2ERKS1_,"axG",@progbits,_ZN9__gnu_cxx13new_allocatorIiEC2ERKS1_,comdat
	.weak	_ZN9__gnu_cxx13new_allocatorIiEC2ERKS1_ # -- Begin function _ZN9__gnu_cxx13new_allocatorIiEC2ERKS1_
	.p2align	4, 0x90
	.type	_ZN9__gnu_cxx13new_allocatorIiEC2ERKS1_,@function
_ZN9__gnu_cxx13new_allocatorIiEC2ERKS1_: # @_ZN9__gnu_cxx13new_allocatorIiEC2ERKS1_
	.cfi_startproc
# %bb.0:                                # %entry
	pushq	%rbp
	.cfi_def_cfa_offset 16
	.cfi_offset %rbp, -16
	movq	%rsp, %rbp
	.cfi_def_cfa_register %rbp
	movq	%rdi, -8(%rbp)
	movq	%rsi, -16(%rbp)
	popq	%rbp
	.cfi_def_cfa %rsp, 8
	retq
.Lfunc_end68:
	.size	_ZN9__gnu_cxx13new_allocatorIiEC2ERKS1_, .Lfunc_end68-_ZN9__gnu_cxx13new_allocatorIiEC2ERKS1_
	.cfi_endproc
                                        # -- End function
	.section	.text._ZNSt12_Vector_baseIiSaIiEEC2ERKS0_,"axG",@progbits,_ZNSt12_Vector_baseIiSaIiEEC2ERKS0_,comdat
	.weak	_ZNSt12_Vector_baseIiSaIiEEC2ERKS0_ # -- Begin function _ZNSt12_Vector_baseIiSaIiEEC2ERKS0_
	.p2align	4, 0x90
	.type	_ZNSt12_Vector_baseIiSaIiEEC2ERKS0_,@function
_ZNSt12_Vector_baseIiSaIiEEC2ERKS0_:    # @_ZNSt12_Vector_baseIiSaIiEEC2ERKS0_
	.cfi_startproc
# %bb.0:                                # %entry
	pushq	%rbp
	.cfi_def_cfa_offset 16
	.cfi_offset %rbp, -16
	movq	%rsp, %rbp
	.cfi_def_cfa_register %rbp
	subq	$16, %rsp
	movq	%rdi, -8(%rbp)
	movq	%rsi, -16(%rbp)
	movq	-8(%rbp), %rdi
	movq	-16(%rbp), %rsi
	callq	_ZNSt12_Vector_baseIiSaIiEE12_Vector_implC2ERKS0_
	addq	$16, %rsp
	popq	%rbp
	.cfi_def_cfa %rsp, 8
	retq
.Lfunc_end69:
	.size	_ZNSt12_Vector_baseIiSaIiEEC2ERKS0_, .Lfunc_end69-_ZNSt12_Vector_baseIiSaIiEEC2ERKS0_
	.cfi_endproc
                                        # -- End function
	.section	.text._ZNSt12_Vector_baseIiSaIiEE12_Vector_implC2ERKS0_,"axG",@progbits,_ZNSt12_Vector_baseIiSaIiEE12_Vector_implC2ERKS0_,comdat
	.weak	_ZNSt12_Vector_baseIiSaIiEE12_Vector_implC2ERKS0_ # -- Begin function _ZNSt12_Vector_baseIiSaIiEE12_Vector_implC2ERKS0_
	.p2align	4, 0x90
	.type	_ZNSt12_Vector_baseIiSaIiEE12_Vector_implC2ERKS0_,@function
_ZNSt12_Vector_baseIiSaIiEE12_Vector_implC2ERKS0_: # @_ZNSt12_Vector_baseIiSaIiEE12_Vector_implC2ERKS0_
	.cfi_startproc
# %bb.0:                                # %entry
	pushq	%rbp
	.cfi_def_cfa_offset 16
	.cfi_offset %rbp, -16
	movq	%rsp, %rbp
	.cfi_def_cfa_register %rbp
	subq	$32, %rsp
	movq	%rdi, -8(%rbp)
	movq	%rsi, -16(%rbp)
	movq	-8(%rbp), %rsi
	movq	%rsi, %rdi
	movq	-16(%rbp), %rax
	movq	%rsi, -24(%rbp)         # 8-byte Spill
	movq	%rax, %rsi
	callq	_ZNSaIiEC2ERKS_
	movq	-24(%rbp), %rax         # 8-byte Reload
	movq	$0, (%rax)
	movq	$0, 8(%rax)
	movq	$0, 16(%rax)
	addq	$32, %rsp
	popq	%rbp
	.cfi_def_cfa %rsp, 8
	retq
.Lfunc_end70:
	.size	_ZNSt12_Vector_baseIiSaIiEE12_Vector_implC2ERKS0_, .Lfunc_end70-_ZNSt12_Vector_baseIiSaIiEE12_Vector_implC2ERKS0_
	.cfi_endproc
                                        # -- End function
	.section	.text._ZSt4swapIPiENSt9enable_ifIXsr6__and_ISt6__not_ISt15__is_tuple_likeIT_EESt21is_move_constructibleIS4_ESt18is_move_assignableIS4_EEE5valueEvE4typeERS4_SD_,"axG",@progbits,_ZSt4swapIPiENSt9enable_ifIXsr6__and_ISt6__not_ISt15__is_tuple_likeIT_EESt21is_move_constructibleIS4_ESt18is_move_assignableIS4_EEE5valueEvE4typeERS4_SD_,comdat
	.weak	_ZSt4swapIPiENSt9enable_ifIXsr6__and_ISt6__not_ISt15__is_tuple_likeIT_EESt21is_move_constructibleIS4_ESt18is_move_assignableIS4_EEE5valueEvE4typeERS4_SD_ # -- Begin function _ZSt4swapIPiENSt9enable_ifIXsr6__and_ISt6__not_ISt15__is_tuple_likeIT_EESt21is_move_constructibleIS4_ESt18is_move_assignableIS4_EEE5valueEvE4typeERS4_SD_
	.p2align	4, 0x90
	.type	_ZSt4swapIPiENSt9enable_ifIXsr6__and_ISt6__not_ISt15__is_tuple_likeIT_EESt21is_move_constructibleIS4_ESt18is_move_assignableIS4_EEE5valueEvE4typeERS4_SD_,@function
_ZSt4swapIPiENSt9enable_ifIXsr6__and_ISt6__not_ISt15__is_tuple_likeIT_EESt21is_move_constructibleIS4_ESt18is_move_assignableIS4_EEE5valueEvE4typeERS4_SD_: # @_ZSt4swapIPiENSt9enable_ifIXsr6__and_ISt6__not_ISt15__is_tuple_likeIT_EESt21is_move_constructibleIS4_ESt18is_move_assignableIS4_EEE5valueEvE4typeERS4_SD_
	.cfi_startproc
# %bb.0:                                # %entry
	pushq	%rbp
	.cfi_def_cfa_offset 16
	.cfi_offset %rbp, -16
	movq	%rsp, %rbp
	.cfi_def_cfa_register %rbp
	subq	$32, %rsp
	movq	%rdi, -8(%rbp)
	movq	%rsi, -16(%rbp)
	movq	-8(%rbp), %rdi
	callq	_ZSt4moveIRPiEONSt16remove_referenceIT_E4typeEOS3_
	movq	(%rax), %rax
	movq	%rax, -24(%rbp)
	movq	-16(%rbp), %rdi
	callq	_ZSt4moveIRPiEONSt16remove_referenceIT_E4typeEOS3_
	movq	(%rax), %rax
	movq	-8(%rbp), %rsi
	movq	%rax, (%rsi)
	leaq	-24(%rbp), %rdi
	callq	_ZSt4moveIRPiEONSt16remove_referenceIT_E4typeEOS3_
	movq	(%rax), %rax
	movq	-16(%rbp), %rsi
	movq	%rax, (%rsi)
	addq	$32, %rsp
	popq	%rbp
	.cfi_def_cfa %rsp, 8
	retq
.Lfunc_end71:
	.size	_ZSt4swapIPiENSt9enable_ifIXsr6__and_ISt6__not_ISt15__is_tuple_likeIT_EESt21is_move_constructibleIS4_ESt18is_move_assignableIS4_EEE5valueEvE4typeERS4_SD_, .Lfunc_end71-_ZSt4swapIPiENSt9enable_ifIXsr6__and_ISt6__not_ISt15__is_tuple_likeIT_EESt21is_move_constructibleIS4_ESt18is_move_assignableIS4_EEE5valueEvE4typeERS4_SD_
	.cfi_endproc
                                        # -- End function
	.section	.text._ZSt4moveIRPiEONSt16remove_referenceIT_E4typeEOS3_,"axG",@progbits,_ZSt4moveIRPiEONSt16remove_referenceIT_E4typeEOS3_,comdat
	.weak	_ZSt4moveIRPiEONSt16remove_referenceIT_E4typeEOS3_ # -- Begin function _ZSt4moveIRPiEONSt16remove_referenceIT_E4typeEOS3_
	.p2align	4, 0x90
	.type	_ZSt4moveIRPiEONSt16remove_referenceIT_E4typeEOS3_,@function
_ZSt4moveIRPiEONSt16remove_referenceIT_E4typeEOS3_: # @_ZSt4moveIRPiEONSt16remove_referenceIT_E4typeEOS3_
	.cfi_startproc
# %bb.0:                                # %entry
	pushq	%rbp
	.cfi_def_cfa_offset 16
	.cfi_offset %rbp, -16
	movq	%rsp, %rbp
	.cfi_def_cfa_register %rbp
	movq	%rdi, -8(%rbp)
	movq	-8(%rbp), %rax
	popq	%rbp
	.cfi_def_cfa %rsp, 8
	retq
.Lfunc_end72:
	.size	_ZSt4moveIRPiEONSt16remove_referenceIT_E4typeEOS3_, .Lfunc_end72-_ZSt4moveIRPiEONSt16remove_referenceIT_E4typeEOS3_
	.cfi_endproc
                                        # -- End function
	.section	.text._ZSt18__do_alloc_on_moveISaIiEEvRT_S2_St17integral_constantIbLb1EE,"axG",@progbits,_ZSt18__do_alloc_on_moveISaIiEEvRT_S2_St17integral_constantIbLb1EE,comdat
	.weak	_ZSt18__do_alloc_on_moveISaIiEEvRT_S2_St17integral_constantIbLb1EE # -- Begin function _ZSt18__do_alloc_on_moveISaIiEEvRT_S2_St17integral_constantIbLb1EE
	.p2align	4, 0x90
	.type	_ZSt18__do_alloc_on_moveISaIiEEvRT_S2_St17integral_constantIbLb1EE,@function
_ZSt18__do_alloc_on_moveISaIiEEvRT_S2_St17integral_constantIbLb1EE: # @_ZSt18__do_alloc_on_moveISaIiEEvRT_S2_St17integral_constantIbLb1EE
	.cfi_startproc
# %bb.0:                                # %entry
	pushq	%rbp
	.cfi_def_cfa_offset 16
	.cfi_offset %rbp, -16
	movq	%rsp, %rbp
	.cfi_def_cfa_register %rbp
	subq	$32, %rsp
	movq	%rdi, -16(%rbp)
	movq	%rsi, -24(%rbp)
	movq	-24(%rbp), %rdi
	callq	_ZSt4moveIRSaIiEEONSt16remove_referenceIT_E4typeEOS3_
	movq	%rax, -32(%rbp)         # 8-byte Spill
	addq	$32, %rsp
	popq	%rbp
	.cfi_def_cfa %rsp, 8
	retq
.Lfunc_end73:
	.size	_ZSt18__do_alloc_on_moveISaIiEEvRT_S2_St17integral_constantIbLb1EE, .Lfunc_end73-_ZSt18__do_alloc_on_moveISaIiEEvRT_S2_St17integral_constantIbLb1EE
	.cfi_endproc
                                        # -- End function
	.section	.text._ZSt4moveIRSaIiEEONSt16remove_referenceIT_E4typeEOS3_,"axG",@progbits,_ZSt4moveIRSaIiEEONSt16remove_referenceIT_E4typeEOS3_,comdat
	.weak	_ZSt4moveIRSaIiEEONSt16remove_referenceIT_E4typeEOS3_ # -- Begin function _ZSt4moveIRSaIiEEONSt16remove_referenceIT_E4typeEOS3_
	.p2align	4, 0x90
	.type	_ZSt4moveIRSaIiEEONSt16remove_referenceIT_E4typeEOS3_,@function
_ZSt4moveIRSaIiEEONSt16remove_referenceIT_E4typeEOS3_: # @_ZSt4moveIRSaIiEEONSt16remove_referenceIT_E4typeEOS3_
	.cfi_startproc
# %bb.0:                                # %entry
	pushq	%rbp
	.cfi_def_cfa_offset 16
	.cfi_offset %rbp, -16
	movq	%rsp, %rbp
	.cfi_def_cfa_register %rbp
	movq	%rdi, -8(%rbp)
	movq	-8(%rbp), %rax
	popq	%rbp
	.cfi_def_cfa %rsp, 8
	retq
.Lfunc_end74:
	.size	_ZSt4moveIRSaIiEEONSt16remove_referenceIT_E4typeEOS3_, .Lfunc_end74-_ZSt4moveIRSaIiEEONSt16remove_referenceIT_E4typeEOS3_
	.cfi_endproc
                                        # -- End function
	.section	.text._ZN9__gnu_cxx13new_allocatorIiEC2Ev,"axG",@progbits,_ZN9__gnu_cxx13new_allocatorIiEC2Ev,comdat
	.weak	_ZN9__gnu_cxx13new_allocatorIiEC2Ev # -- Begin function _ZN9__gnu_cxx13new_allocatorIiEC2Ev
	.p2align	4, 0x90
	.type	_ZN9__gnu_cxx13new_allocatorIiEC2Ev,@function
_ZN9__gnu_cxx13new_allocatorIiEC2Ev:    # @_ZN9__gnu_cxx13new_allocatorIiEC2Ev
	.cfi_startproc
# %bb.0:                                # %entry
	pushq	%rbp
	.cfi_def_cfa_offset 16
	.cfi_offset %rbp, -16
	movq	%rsp, %rbp
	.cfi_def_cfa_register %rbp
	movq	%rdi, -8(%rbp)
	popq	%rbp
	.cfi_def_cfa %rsp, 8
	retq
.Lfunc_end75:
	.size	_ZN9__gnu_cxx13new_allocatorIiEC2Ev, .Lfunc_end75-_ZN9__gnu_cxx13new_allocatorIiEC2Ev
	.cfi_endproc
                                        # -- End function
	.section	.text._ZN9__gnu_cxx13new_allocatorIiED2Ev,"axG",@progbits,_ZN9__gnu_cxx13new_allocatorIiED2Ev,comdat
	.weak	_ZN9__gnu_cxx13new_allocatorIiED2Ev # -- Begin function _ZN9__gnu_cxx13new_allocatorIiED2Ev
	.p2align	4, 0x90
	.type	_ZN9__gnu_cxx13new_allocatorIiED2Ev,@function
_ZN9__gnu_cxx13new_allocatorIiED2Ev:    # @_ZN9__gnu_cxx13new_allocatorIiED2Ev
	.cfi_startproc
# %bb.0:                                # %entry
	pushq	%rbp
	.cfi_def_cfa_offset 16
	.cfi_offset %rbp, -16
	movq	%rsp, %rbp
	.cfi_def_cfa_register %rbp
	movq	%rdi, -8(%rbp)
	popq	%rbp
	.cfi_def_cfa %rsp, 8
	retq
.Lfunc_end76:
	.size	_ZN9__gnu_cxx13new_allocatorIiED2Ev, .Lfunc_end76-_ZN9__gnu_cxx13new_allocatorIiED2Ev
	.cfi_endproc
                                        # -- End function
	.section	.text._ZNSt6vectorIiSaIiEE19_M_range_initializeIPKiEEvT_S5_St20forward_iterator_tag,"axG",@progbits,_ZNSt6vectorIiSaIiEE19_M_range_initializeIPKiEEvT_S5_St20forward_iterator_tag,comdat
	.weak	_ZNSt6vectorIiSaIiEE19_M_range_initializeIPKiEEvT_S5_St20forward_iterator_tag # -- Begin function _ZNSt6vectorIiSaIiEE19_M_range_initializeIPKiEEvT_S5_St20forward_iterator_tag
	.p2align	4, 0x90
	.type	_ZNSt6vectorIiSaIiEE19_M_range_initializeIPKiEEvT_S5_St20forward_iterator_tag,@function
_ZNSt6vectorIiSaIiEE19_M_range_initializeIPKiEEvT_S5_St20forward_iterator_tag: # @_ZNSt6vectorIiSaIiEE19_M_range_initializeIPKiEEvT_S5_St20forward_iterator_tag
	.cfi_startproc
# %bb.0:                                # %entry
	pushq	%rbp
	.cfi_def_cfa_offset 16
	.cfi_offset %rbp, -16
	movq	%rsp, %rbp
	.cfi_def_cfa_register %rbp
	subq	$80, %rsp
	movq	%rdi, -16(%rbp)
	movq	%rsi, -24(%rbp)
	movq	%rdx, -32(%rbp)
	movq	-16(%rbp), %rdx
	movq	-24(%rbp), %rdi
	movq	-32(%rbp), %rsi
	movq	%rdx, -48(%rbp)         # 8-byte Spill
	callq	_ZSt8distanceIPKiENSt15iterator_traitsIT_E15difference_typeES3_S3_
	movq	%rax, -40(%rbp)
	movq	-48(%rbp), %rax         # 8-byte Reload
	movq	-40(%rbp), %rsi
	movq	%rax, %rdi
	callq	_ZNSt12_Vector_baseIiSaIiEE11_M_allocateEm
	movq	-48(%rbp), %rdx         # 8-byte Reload
	movq	%rax, (%rdx)
	movq	(%rdx), %rax
	movq	-40(%rbp), %rsi
	shlq	$2, %rsi
	addq	%rsi, %rax
	movq	%rax, 16(%rdx)
	movq	-24(%rbp), %rdi
	movq	-32(%rbp), %rsi
	movq	(%rdx), %rdx
	movq	-48(%rbp), %rax         # 8-byte Reload
	movq	%rdi, -56(%rbp)         # 8-byte Spill
	movq	%rax, %rdi
	movq	%rdx, -64(%rbp)         # 8-byte Spill
	movq	%rsi, -72(%rbp)         # 8-byte Spill
	callq	_ZNSt12_Vector_baseIiSaIiEE19_M_get_Tp_allocatorEv
	movq	-56(%rbp), %rdi         # 8-byte Reload
	movq	-72(%rbp), %rsi         # 8-byte Reload
	movq	-64(%rbp), %rdx         # 8-byte Reload
	movq	%rax, %rcx
	callq	_ZSt22__uninitialized_copy_aIPKiPiiET0_T_S4_S3_RSaIT1_E
	movq	-48(%rbp), %rcx         # 8-byte Reload
	movq	%rax, 8(%rcx)
	addq	$80, %rsp
	popq	%rbp
	.cfi_def_cfa %rsp, 8
	retq
.Lfunc_end77:
	.size	_ZNSt6vectorIiSaIiEE19_M_range_initializeIPKiEEvT_S5_St20forward_iterator_tag, .Lfunc_end77-_ZNSt6vectorIiSaIiEE19_M_range_initializeIPKiEEvT_S5_St20forward_iterator_tag
	.cfi_endproc
                                        # -- End function
	.section	.text._ZNKSt16initializer_listIiE5beginEv,"axG",@progbits,_ZNKSt16initializer_listIiE5beginEv,comdat
	.weak	_ZNKSt16initializer_listIiE5beginEv # -- Begin function _ZNKSt16initializer_listIiE5beginEv
	.p2align	4, 0x90
	.type	_ZNKSt16initializer_listIiE5beginEv,@function
_ZNKSt16initializer_listIiE5beginEv:    # @_ZNKSt16initializer_listIiE5beginEv
	.cfi_startproc
# %bb.0:                                # %entry
	pushq	%rbp
	.cfi_def_cfa_offset 16
	.cfi_offset %rbp, -16
	movq	%rsp, %rbp
	.cfi_def_cfa_register %rbp
	movq	%rdi, -8(%rbp)
	movq	-8(%rbp), %rdi
	movq	(%rdi), %rax
	popq	%rbp
	.cfi_def_cfa %rsp, 8
	retq
.Lfunc_end78:
	.size	_ZNKSt16initializer_listIiE5beginEv, .Lfunc_end78-_ZNKSt16initializer_listIiE5beginEv
	.cfi_endproc
                                        # -- End function
	.section	.text._ZNKSt16initializer_listIiE3endEv,"axG",@progbits,_ZNKSt16initializer_listIiE3endEv,comdat
	.weak	_ZNKSt16initializer_listIiE3endEv # -- Begin function _ZNKSt16initializer_listIiE3endEv
	.p2align	4, 0x90
	.type	_ZNKSt16initializer_listIiE3endEv,@function
_ZNKSt16initializer_listIiE3endEv:      # @_ZNKSt16initializer_listIiE3endEv
	.cfi_startproc
# %bb.0:                                # %entry
	pushq	%rbp
	.cfi_def_cfa_offset 16
	.cfi_offset %rbp, -16
	movq	%rsp, %rbp
	.cfi_def_cfa_register %rbp
	subq	$32, %rsp
	movq	%rdi, -8(%rbp)
	movq	-8(%rbp), %rdi
	movq	%rdi, -16(%rbp)         # 8-byte Spill
	callq	_ZNKSt16initializer_listIiE5beginEv
	movq	-16(%rbp), %rdi         # 8-byte Reload
	movq	%rax, -24(%rbp)         # 8-byte Spill
	callq	_ZNKSt16initializer_listIiE4sizeEv
	shlq	$2, %rax
	movq	-24(%rbp), %rdi         # 8-byte Reload
	addq	%rax, %rdi
	movq	%rdi, %rax
	addq	$32, %rsp
	popq	%rbp
	.cfi_def_cfa %rsp, 8
	retq
.Lfunc_end79:
	.size	_ZNKSt16initializer_listIiE3endEv, .Lfunc_end79-_ZNKSt16initializer_listIiE3endEv
	.cfi_endproc
                                        # -- End function
	.section	.text._ZNSt12_Vector_baseIiSaIiEED2Ev,"axG",@progbits,_ZNSt12_Vector_baseIiSaIiEED2Ev,comdat
	.weak	_ZNSt12_Vector_baseIiSaIiEED2Ev # -- Begin function _ZNSt12_Vector_baseIiSaIiEED2Ev
	.p2align	4, 0x90
	.type	_ZNSt12_Vector_baseIiSaIiEED2Ev,@function
_ZNSt12_Vector_baseIiSaIiEED2Ev:        # @_ZNSt12_Vector_baseIiSaIiEED2Ev
.Lfunc_begin10:
	.cfi_startproc
	.cfi_personality 3, __gxx_personality_v0
	.cfi_lsda 3, .Lexception10
# %bb.0:                                # %entry
	pushq	%rbp
	.cfi_def_cfa_offset 16
	.cfi_offset %rbp, -16
	movq	%rsp, %rbp
	.cfi_def_cfa_register %rbp
	subq	$32, %rsp
	movq	%rdi, -8(%rbp)
	movq	-8(%rbp), %rdi
	movq	(%rdi), %rax
	movq	16(%rdi), %rcx
	subq	%rax, %rcx
	sarq	$2, %rcx
.Ltmp237:
	movq	%rdi, -32(%rbp)         # 8-byte Spill
	movq	%rax, %rsi
	movq	%rcx, %rdx
	callq	_ZNSt12_Vector_baseIiSaIiEE13_M_deallocateEPim
.Ltmp238:
	jmp	.LBB80_1
.LBB80_1:                               # %invoke.cont
	movq	-32(%rbp), %rdi         # 8-byte Reload
	callq	_ZNSt12_Vector_baseIiSaIiEE12_Vector_implD2Ev
	addq	$32, %rsp
	popq	%rbp
	.cfi_def_cfa %rsp, 8
	retq
.LBB80_2:                               # %lpad
	.cfi_def_cfa %rbp, 16
.Ltmp239:
	movl	%edx, %ecx
	movq	%rax, -16(%rbp)
	movl	%ecx, -20(%rbp)
	movq	-32(%rbp), %rdi         # 8-byte Reload
	callq	_ZNSt12_Vector_baseIiSaIiEE12_Vector_implD2Ev
# %bb.3:                                # %terminate.handler
	movq	-16(%rbp), %rdi
	callq	__clang_call_terminate
.Lfunc_end80:
	.size	_ZNSt12_Vector_baseIiSaIiEED2Ev, .Lfunc_end80-_ZNSt12_Vector_baseIiSaIiEED2Ev
	.cfi_endproc
	.section	.gcc_except_table,"a",@progbits
	.p2align	2
GCC_except_table80:
.Lexception10:
	.byte	255                     # @LPStart Encoding = omit
	.byte	3                       # @TType Encoding = udata4
	.uleb128 .Lttbase6-.Lttbaseref6
.Lttbaseref6:
	.byte	1                       # Call site Encoding = uleb128
	.uleb128 .Lcst_end10-.Lcst_begin10
.Lcst_begin10:
	.uleb128 .Ltmp237-.Lfunc_begin10 # >> Call Site 1 <<
	.uleb128 .Ltmp238-.Ltmp237      #   Call between .Ltmp237 and .Ltmp238
	.uleb128 .Ltmp239-.Lfunc_begin10 #     jumps to .Ltmp239
	.byte	1                       #   On action: 1
.Lcst_end10:
	.byte	1                       # >> Action Record 1 <<
                                        #   Catch TypeInfo 1
	.byte	0                       #   No further actions
	.p2align	2
                                        # >> Catch TypeInfos <<
	.long	0                       # TypeInfo 1
.Lttbase6:
	.p2align	2
                                        # -- End function
	.section	.text._ZSt8distanceIPKiENSt15iterator_traitsIT_E15difference_typeES3_S3_,"axG",@progbits,_ZSt8distanceIPKiENSt15iterator_traitsIT_E15difference_typeES3_S3_,comdat
	.weak	_ZSt8distanceIPKiENSt15iterator_traitsIT_E15difference_typeES3_S3_ # -- Begin function _ZSt8distanceIPKiENSt15iterator_traitsIT_E15difference_typeES3_S3_
	.p2align	4, 0x90
	.type	_ZSt8distanceIPKiENSt15iterator_traitsIT_E15difference_typeES3_S3_,@function
_ZSt8distanceIPKiENSt15iterator_traitsIT_E15difference_typeES3_S3_: # @_ZSt8distanceIPKiENSt15iterator_traitsIT_E15difference_typeES3_S3_
	.cfi_startproc
# %bb.0:                                # %entry
	pushq	%rbp
	.cfi_def_cfa_offset 16
	.cfi_offset %rbp, -16
	movq	%rsp, %rbp
	.cfi_def_cfa_register %rbp
	subq	$48, %rsp
	movq	%rdi, -8(%rbp)
	movq	%rsi, -16(%rbp)
	movq	-8(%rbp), %rdi
	movq	-16(%rbp), %rsi
	leaq	-8(%rbp), %rax
	movq	%rdi, -40(%rbp)         # 8-byte Spill
	movq	%rax, %rdi
	movq	%rsi, -48(%rbp)         # 8-byte Spill
	callq	_ZSt19__iterator_categoryIPKiENSt15iterator_traitsIT_E17iterator_categoryERKS3_
	movq	-40(%rbp), %rdi         # 8-byte Reload
	movq	-48(%rbp), %rsi         # 8-byte Reload
	callq	_ZSt10__distanceIPKiENSt15iterator_traitsIT_E15difference_typeES3_S3_St26random_access_iterator_tag
	addq	$48, %rsp
	popq	%rbp
	.cfi_def_cfa %rsp, 8
	retq
.Lfunc_end81:
	.size	_ZSt8distanceIPKiENSt15iterator_traitsIT_E15difference_typeES3_S3_, .Lfunc_end81-_ZSt8distanceIPKiENSt15iterator_traitsIT_E15difference_typeES3_S3_
	.cfi_endproc
                                        # -- End function
	.section	.text._ZNSt12_Vector_baseIiSaIiEE11_M_allocateEm,"axG",@progbits,_ZNSt12_Vector_baseIiSaIiEE11_M_allocateEm,comdat
	.weak	_ZNSt12_Vector_baseIiSaIiEE11_M_allocateEm # -- Begin function _ZNSt12_Vector_baseIiSaIiEE11_M_allocateEm
	.p2align	4, 0x90
	.type	_ZNSt12_Vector_baseIiSaIiEE11_M_allocateEm,@function
_ZNSt12_Vector_baseIiSaIiEE11_M_allocateEm: # @_ZNSt12_Vector_baseIiSaIiEE11_M_allocateEm
	.cfi_startproc
# %bb.0:                                # %entry
	pushq	%rbp
	.cfi_def_cfa_offset 16
	.cfi_offset %rbp, -16
	movq	%rsp, %rbp
	.cfi_def_cfa_register %rbp
	subq	$32, %rsp
	movq	%rdi, -8(%rbp)
	movq	%rsi, -16(%rbp)
	movq	-8(%rbp), %rsi
	cmpq	$0, -16(%rbp)
	movq	%rsi, -24(%rbp)         # 8-byte Spill
	je	.LBB82_2
# %bb.1:                                # %cond.true
	movq	-24(%rbp), %rax         # 8-byte Reload
	movq	-16(%rbp), %rsi
	movq	%rax, %rdi
	callq	_ZNSt16allocator_traitsISaIiEE8allocateERS0_m
	movq	%rax, -32(%rbp)         # 8-byte Spill
	jmp	.LBB82_3
.LBB82_2:                               # %cond.false
	xorl	%eax, %eax
	movl	%eax, %ecx
	movq	%rcx, -32(%rbp)         # 8-byte Spill
	jmp	.LBB82_3
.LBB82_3:                               # %cond.end
	movq	-32(%rbp), %rax         # 8-byte Reload
	addq	$32, %rsp
	popq	%rbp
	.cfi_def_cfa %rsp, 8
	retq
.Lfunc_end82:
	.size	_ZNSt12_Vector_baseIiSaIiEE11_M_allocateEm, .Lfunc_end82-_ZNSt12_Vector_baseIiSaIiEE11_M_allocateEm
	.cfi_endproc
                                        # -- End function
	.section	.text._ZSt22__uninitialized_copy_aIPKiPiiET0_T_S4_S3_RSaIT1_E,"axG",@progbits,_ZSt22__uninitialized_copy_aIPKiPiiET0_T_S4_S3_RSaIT1_E,comdat
	.weak	_ZSt22__uninitialized_copy_aIPKiPiiET0_T_S4_S3_RSaIT1_E # -- Begin function _ZSt22__uninitialized_copy_aIPKiPiiET0_T_S4_S3_RSaIT1_E
	.p2align	4, 0x90
	.type	_ZSt22__uninitialized_copy_aIPKiPiiET0_T_S4_S3_RSaIT1_E,@function
_ZSt22__uninitialized_copy_aIPKiPiiET0_T_S4_S3_RSaIT1_E: # @_ZSt22__uninitialized_copy_aIPKiPiiET0_T_S4_S3_RSaIT1_E
	.cfi_startproc
# %bb.0:                                # %entry
	pushq	%rbp
	.cfi_def_cfa_offset 16
	.cfi_offset %rbp, -16
	movq	%rsp, %rbp
	.cfi_def_cfa_register %rbp
	subq	$32, %rsp
	movq	%rdi, -8(%rbp)
	movq	%rsi, -16(%rbp)
	movq	%rdx, -24(%rbp)
	movq	%rcx, -32(%rbp)
	movq	-8(%rbp), %rdi
	movq	-16(%rbp), %rsi
	movq	-24(%rbp), %rdx
	callq	_ZSt18uninitialized_copyIPKiPiET0_T_S4_S3_
	addq	$32, %rsp
	popq	%rbp
	.cfi_def_cfa %rsp, 8
	retq
.Lfunc_end83:
	.size	_ZSt22__uninitialized_copy_aIPKiPiiET0_T_S4_S3_RSaIT1_E, .Lfunc_end83-_ZSt22__uninitialized_copy_aIPKiPiiET0_T_S4_S3_RSaIT1_E
	.cfi_endproc
                                        # -- End function
	.section	.text._ZSt10__distanceIPKiENSt15iterator_traitsIT_E15difference_typeES3_S3_St26random_access_iterator_tag,"axG",@progbits,_ZSt10__distanceIPKiENSt15iterator_traitsIT_E15difference_typeES3_S3_St26random_access_iterator_tag,comdat
	.weak	_ZSt10__distanceIPKiENSt15iterator_traitsIT_E15difference_typeES3_S3_St26random_access_iterator_tag # -- Begin function _ZSt10__distanceIPKiENSt15iterator_traitsIT_E15difference_typeES3_S3_St26random_access_iterator_tag
	.p2align	4, 0x90
	.type	_ZSt10__distanceIPKiENSt15iterator_traitsIT_E15difference_typeES3_S3_St26random_access_iterator_tag,@function
_ZSt10__distanceIPKiENSt15iterator_traitsIT_E15difference_typeES3_S3_St26random_access_iterator_tag: # @_ZSt10__distanceIPKiENSt15iterator_traitsIT_E15difference_typeES3_S3_St26random_access_iterator_tag
	.cfi_startproc
# %bb.0:                                # %entry
	pushq	%rbp
	.cfi_def_cfa_offset 16
	.cfi_offset %rbp, -16
	movq	%rsp, %rbp
	.cfi_def_cfa_register %rbp
	movq	%rdi, -16(%rbp)
	movq	%rsi, -24(%rbp)
	movq	-24(%rbp), %rsi
	movq	-16(%rbp), %rdi
	subq	%rdi, %rsi
	sarq	$2, %rsi
	movq	%rsi, %rax
	popq	%rbp
	.cfi_def_cfa %rsp, 8
	retq
.Lfunc_end84:
	.size	_ZSt10__distanceIPKiENSt15iterator_traitsIT_E15difference_typeES3_S3_St26random_access_iterator_tag, .Lfunc_end84-_ZSt10__distanceIPKiENSt15iterator_traitsIT_E15difference_typeES3_S3_St26random_access_iterator_tag
	.cfi_endproc
                                        # -- End function
	.section	.text._ZSt19__iterator_categoryIPKiENSt15iterator_traitsIT_E17iterator_categoryERKS3_,"axG",@progbits,_ZSt19__iterator_categoryIPKiENSt15iterator_traitsIT_E17iterator_categoryERKS3_,comdat
	.weak	_ZSt19__iterator_categoryIPKiENSt15iterator_traitsIT_E17iterator_categoryERKS3_ # -- Begin function _ZSt19__iterator_categoryIPKiENSt15iterator_traitsIT_E17iterator_categoryERKS3_
	.p2align	4, 0x90
	.type	_ZSt19__iterator_categoryIPKiENSt15iterator_traitsIT_E17iterator_categoryERKS3_,@function
_ZSt19__iterator_categoryIPKiENSt15iterator_traitsIT_E17iterator_categoryERKS3_: # @_ZSt19__iterator_categoryIPKiENSt15iterator_traitsIT_E17iterator_categoryERKS3_
	.cfi_startproc
# %bb.0:                                # %entry
	pushq	%rbp
	.cfi_def_cfa_offset 16
	.cfi_offset %rbp, -16
	movq	%rsp, %rbp
	.cfi_def_cfa_register %rbp
	movq	%rdi, -16(%rbp)
	popq	%rbp
	.cfi_def_cfa %rsp, 8
	retq
.Lfunc_end85:
	.size	_ZSt19__iterator_categoryIPKiENSt15iterator_traitsIT_E17iterator_categoryERKS3_, .Lfunc_end85-_ZSt19__iterator_categoryIPKiENSt15iterator_traitsIT_E17iterator_categoryERKS3_
	.cfi_endproc
                                        # -- End function
	.section	.text._ZNSt16allocator_traitsISaIiEE8allocateERS0_m,"axG",@progbits,_ZNSt16allocator_traitsISaIiEE8allocateERS0_m,comdat
	.weak	_ZNSt16allocator_traitsISaIiEE8allocateERS0_m # -- Begin function _ZNSt16allocator_traitsISaIiEE8allocateERS0_m
	.p2align	4, 0x90
	.type	_ZNSt16allocator_traitsISaIiEE8allocateERS0_m,@function
_ZNSt16allocator_traitsISaIiEE8allocateERS0_m: # @_ZNSt16allocator_traitsISaIiEE8allocateERS0_m
	.cfi_startproc
# %bb.0:                                # %entry
	pushq	%rbp
	.cfi_def_cfa_offset 16
	.cfi_offset %rbp, -16
	movq	%rsp, %rbp
	.cfi_def_cfa_register %rbp
	subq	$32, %rsp
	xorl	%eax, %eax
	movl	%eax, %edx
	movq	%rdi, -8(%rbp)
	movq	%rsi, -16(%rbp)
	movq	-8(%rbp), %rsi
	movq	-16(%rbp), %rdi
	movq	%rdi, -24(%rbp)         # 8-byte Spill
	movq	%rsi, %rdi
	movq	-24(%rbp), %rsi         # 8-byte Reload
	callq	_ZN9__gnu_cxx13new_allocatorIiE8allocateEmPKv
	addq	$32, %rsp
	popq	%rbp
	.cfi_def_cfa %rsp, 8
	retq
.Lfunc_end86:
	.size	_ZNSt16allocator_traitsISaIiEE8allocateERS0_m, .Lfunc_end86-_ZNSt16allocator_traitsISaIiEE8allocateERS0_m
	.cfi_endproc
                                        # -- End function
	.section	.text._ZN9__gnu_cxx13new_allocatorIiE8allocateEmPKv,"axG",@progbits,_ZN9__gnu_cxx13new_allocatorIiE8allocateEmPKv,comdat
	.weak	_ZN9__gnu_cxx13new_allocatorIiE8allocateEmPKv # -- Begin function _ZN9__gnu_cxx13new_allocatorIiE8allocateEmPKv
	.p2align	4, 0x90
	.type	_ZN9__gnu_cxx13new_allocatorIiE8allocateEmPKv,@function
_ZN9__gnu_cxx13new_allocatorIiE8allocateEmPKv: # @_ZN9__gnu_cxx13new_allocatorIiE8allocateEmPKv
	.cfi_startproc
# %bb.0:                                # %entry
	pushq	%rbp
	.cfi_def_cfa_offset 16
	.cfi_offset %rbp, -16
	movq	%rsp, %rbp
	.cfi_def_cfa_register %rbp
	subq	$32, %rsp
	movq	%rdi, -8(%rbp)
	movq	%rsi, -16(%rbp)
	movq	%rdx, -24(%rbp)
	movq	-8(%rbp), %rdi
	movq	-16(%rbp), %rdx
	movq	%rdx, -32(%rbp)         # 8-byte Spill
	callq	_ZNK9__gnu_cxx13new_allocatorIiE8max_sizeEv
	movq	-32(%rbp), %rdx         # 8-byte Reload
	cmpq	%rax, %rdx
	jbe	.LBB87_2
# %bb.1:                                # %if.then
	callq	_ZSt17__throw_bad_allocv
.LBB87_2:                               # %if.end
	movq	-16(%rbp), %rax
	shlq	$2, %rax
	movq	%rax, %rdi
	callq	_Znwm
	addq	$32, %rsp
	popq	%rbp
	.cfi_def_cfa %rsp, 8
	retq
.Lfunc_end87:
	.size	_ZN9__gnu_cxx13new_allocatorIiE8allocateEmPKv, .Lfunc_end87-_ZN9__gnu_cxx13new_allocatorIiE8allocateEmPKv
	.cfi_endproc
                                        # -- End function
	.section	.text._ZNK9__gnu_cxx13new_allocatorIiE8max_sizeEv,"axG",@progbits,_ZNK9__gnu_cxx13new_allocatorIiE8max_sizeEv,comdat
	.weak	_ZNK9__gnu_cxx13new_allocatorIiE8max_sizeEv # -- Begin function _ZNK9__gnu_cxx13new_allocatorIiE8max_sizeEv
	.p2align	4, 0x90
	.type	_ZNK9__gnu_cxx13new_allocatorIiE8max_sizeEv,@function
_ZNK9__gnu_cxx13new_allocatorIiE8max_sizeEv: # @_ZNK9__gnu_cxx13new_allocatorIiE8max_sizeEv
	.cfi_startproc
# %bb.0:                                # %entry
	pushq	%rbp
	.cfi_def_cfa_offset 16
	.cfi_offset %rbp, -16
	movq	%rsp, %rbp
	.cfi_def_cfa_register %rbp
	movq	%rdi, -8(%rbp)
	movabsq	$4611686018427387903, %rax # imm = 0x3FFFFFFFFFFFFFFF
	popq	%rbp
	.cfi_def_cfa %rsp, 8
	retq
.Lfunc_end88:
	.size	_ZNK9__gnu_cxx13new_allocatorIiE8max_sizeEv, .Lfunc_end88-_ZNK9__gnu_cxx13new_allocatorIiE8max_sizeEv
	.cfi_endproc
                                        # -- End function
	.section	.text._ZSt18uninitialized_copyIPKiPiET0_T_S4_S3_,"axG",@progbits,_ZSt18uninitialized_copyIPKiPiET0_T_S4_S3_,comdat
	.weak	_ZSt18uninitialized_copyIPKiPiET0_T_S4_S3_ # -- Begin function _ZSt18uninitialized_copyIPKiPiET0_T_S4_S3_
	.p2align	4, 0x90
	.type	_ZSt18uninitialized_copyIPKiPiET0_T_S4_S3_,@function
_ZSt18uninitialized_copyIPKiPiET0_T_S4_S3_: # @_ZSt18uninitialized_copyIPKiPiET0_T_S4_S3_
	.cfi_startproc
# %bb.0:                                # %entry
	pushq	%rbp
	.cfi_def_cfa_offset 16
	.cfi_offset %rbp, -16
	movq	%rsp, %rbp
	.cfi_def_cfa_register %rbp
	subq	$32, %rsp
	movq	%rdi, -8(%rbp)
	movq	%rsi, -16(%rbp)
	movq	%rdx, -24(%rbp)
	movb	$1, -25(%rbp)
	movq	-8(%rbp), %rdi
	movq	-16(%rbp), %rsi
	movq	-24(%rbp), %rdx
	callq	_ZNSt20__uninitialized_copyILb1EE13__uninit_copyIPKiPiEET0_T_S6_S5_
	addq	$32, %rsp
	popq	%rbp
	.cfi_def_cfa %rsp, 8
	retq
.Lfunc_end89:
	.size	_ZSt18uninitialized_copyIPKiPiET0_T_S4_S3_, .Lfunc_end89-_ZSt18uninitialized_copyIPKiPiET0_T_S4_S3_
	.cfi_endproc
                                        # -- End function
	.section	.text._ZNSt20__uninitialized_copyILb1EE13__uninit_copyIPKiPiEET0_T_S6_S5_,"axG",@progbits,_ZNSt20__uninitialized_copyILb1EE13__uninit_copyIPKiPiEET0_T_S6_S5_,comdat
	.weak	_ZNSt20__uninitialized_copyILb1EE13__uninit_copyIPKiPiEET0_T_S6_S5_ # -- Begin function _ZNSt20__uninitialized_copyILb1EE13__uninit_copyIPKiPiEET0_T_S6_S5_
	.p2align	4, 0x90
	.type	_ZNSt20__uninitialized_copyILb1EE13__uninit_copyIPKiPiEET0_T_S6_S5_,@function
_ZNSt20__uninitialized_copyILb1EE13__uninit_copyIPKiPiEET0_T_S6_S5_: # @_ZNSt20__uninitialized_copyILb1EE13__uninit_copyIPKiPiEET0_T_S6_S5_
	.cfi_startproc
# %bb.0:                                # %entry
	pushq	%rbp
	.cfi_def_cfa_offset 16
	.cfi_offset %rbp, -16
	movq	%rsp, %rbp
	.cfi_def_cfa_register %rbp
	subq	$32, %rsp
	movq	%rdi, -8(%rbp)
	movq	%rsi, -16(%rbp)
	movq	%rdx, -24(%rbp)
	movq	-8(%rbp), %rdi
	movq	-16(%rbp), %rsi
	movq	-24(%rbp), %rdx
	callq	_ZSt4copyIPKiPiET0_T_S4_S3_
	addq	$32, %rsp
	popq	%rbp
	.cfi_def_cfa %rsp, 8
	retq
.Lfunc_end90:
	.size	_ZNSt20__uninitialized_copyILb1EE13__uninit_copyIPKiPiEET0_T_S6_S5_, .Lfunc_end90-_ZNSt20__uninitialized_copyILb1EE13__uninit_copyIPKiPiEET0_T_S6_S5_
	.cfi_endproc
                                        # -- End function
	.section	.text._ZSt4copyIPKiPiET0_T_S4_S3_,"axG",@progbits,_ZSt4copyIPKiPiET0_T_S4_S3_,comdat
	.weak	_ZSt4copyIPKiPiET0_T_S4_S3_ # -- Begin function _ZSt4copyIPKiPiET0_T_S4_S3_
	.p2align	4, 0x90
	.type	_ZSt4copyIPKiPiET0_T_S4_S3_,@function
_ZSt4copyIPKiPiET0_T_S4_S3_:            # @_ZSt4copyIPKiPiET0_T_S4_S3_
	.cfi_startproc
# %bb.0:                                # %entry
	pushq	%rbp
	.cfi_def_cfa_offset 16
	.cfi_offset %rbp, -16
	movq	%rsp, %rbp
	.cfi_def_cfa_register %rbp
	subq	$32, %rsp
	movq	%rdi, -8(%rbp)
	movq	%rsi, -16(%rbp)
	movq	%rdx, -24(%rbp)
	movq	-8(%rbp), %rdi
	callq	_ZSt12__miter_baseIPKiET_S2_
	movq	-16(%rbp), %rdi
	movq	%rax, -32(%rbp)         # 8-byte Spill
	callq	_ZSt12__miter_baseIPKiET_S2_
	movq	-24(%rbp), %rdx
	movq	-32(%rbp), %rdi         # 8-byte Reload
	movq	%rax, %rsi
	callq	_ZSt14__copy_move_a2ILb0EPKiPiET1_T0_S4_S3_
	addq	$32, %rsp
	popq	%rbp
	.cfi_def_cfa %rsp, 8
	retq
.Lfunc_end91:
	.size	_ZSt4copyIPKiPiET0_T_S4_S3_, .Lfunc_end91-_ZSt4copyIPKiPiET0_T_S4_S3_
	.cfi_endproc
                                        # -- End function
	.section	.text._ZSt14__copy_move_a2ILb0EPKiPiET1_T0_S4_S3_,"axG",@progbits,_ZSt14__copy_move_a2ILb0EPKiPiET1_T0_S4_S3_,comdat
	.weak	_ZSt14__copy_move_a2ILb0EPKiPiET1_T0_S4_S3_ # -- Begin function _ZSt14__copy_move_a2ILb0EPKiPiET1_T0_S4_S3_
	.p2align	4, 0x90
	.type	_ZSt14__copy_move_a2ILb0EPKiPiET1_T0_S4_S3_,@function
_ZSt14__copy_move_a2ILb0EPKiPiET1_T0_S4_S3_: # @_ZSt14__copy_move_a2ILb0EPKiPiET1_T0_S4_S3_
	.cfi_startproc
# %bb.0:                                # %entry
	pushq	%rbp
	.cfi_def_cfa_offset 16
	.cfi_offset %rbp, -16
	movq	%rsp, %rbp
	.cfi_def_cfa_register %rbp
	subq	$48, %rsp
	movq	%rdi, -8(%rbp)
	movq	%rsi, -16(%rbp)
	movq	%rdx, -24(%rbp)
	movq	-8(%rbp), %rdi
	callq	_ZSt12__niter_baseIPKiET_S2_
	movq	-16(%rbp), %rdi
	movq	%rax, -32(%rbp)         # 8-byte Spill
	callq	_ZSt12__niter_baseIPKiET_S2_
	movq	-24(%rbp), %rdi
	movq	%rax, -40(%rbp)         # 8-byte Spill
	callq	_ZSt12__niter_baseIPiET_S1_
	movq	-32(%rbp), %rdi         # 8-byte Reload
	movq	-40(%rbp), %rsi         # 8-byte Reload
	movq	%rax, %rdx
	callq	_ZSt13__copy_move_aILb0EPKiPiET1_T0_S4_S3_
	addq	$48, %rsp
	popq	%rbp
	.cfi_def_cfa %rsp, 8
	retq
.Lfunc_end92:
	.size	_ZSt14__copy_move_a2ILb0EPKiPiET1_T0_S4_S3_, .Lfunc_end92-_ZSt14__copy_move_a2ILb0EPKiPiET1_T0_S4_S3_
	.cfi_endproc
                                        # -- End function
	.section	.text._ZSt12__miter_baseIPKiET_S2_,"axG",@progbits,_ZSt12__miter_baseIPKiET_S2_,comdat
	.weak	_ZSt12__miter_baseIPKiET_S2_ # -- Begin function _ZSt12__miter_baseIPKiET_S2_
	.p2align	4, 0x90
	.type	_ZSt12__miter_baseIPKiET_S2_,@function
_ZSt12__miter_baseIPKiET_S2_:           # @_ZSt12__miter_baseIPKiET_S2_
	.cfi_startproc
# %bb.0:                                # %entry
	pushq	%rbp
	.cfi_def_cfa_offset 16
	.cfi_offset %rbp, -16
	movq	%rsp, %rbp
	.cfi_def_cfa_register %rbp
	movq	%rdi, -8(%rbp)
	movq	-8(%rbp), %rax
	popq	%rbp
	.cfi_def_cfa %rsp, 8
	retq
.Lfunc_end93:
	.size	_ZSt12__miter_baseIPKiET_S2_, .Lfunc_end93-_ZSt12__miter_baseIPKiET_S2_
	.cfi_endproc
                                        # -- End function
	.section	.text._ZSt13__copy_move_aILb0EPKiPiET1_T0_S4_S3_,"axG",@progbits,_ZSt13__copy_move_aILb0EPKiPiET1_T0_S4_S3_,comdat
	.weak	_ZSt13__copy_move_aILb0EPKiPiET1_T0_S4_S3_ # -- Begin function _ZSt13__copy_move_aILb0EPKiPiET1_T0_S4_S3_
	.p2align	4, 0x90
	.type	_ZSt13__copy_move_aILb0EPKiPiET1_T0_S4_S3_,@function
_ZSt13__copy_move_aILb0EPKiPiET1_T0_S4_S3_: # @_ZSt13__copy_move_aILb0EPKiPiET1_T0_S4_S3_
	.cfi_startproc
# %bb.0:                                # %entry
	pushq	%rbp
	.cfi_def_cfa_offset 16
	.cfi_offset %rbp, -16
	movq	%rsp, %rbp
	.cfi_def_cfa_register %rbp
	subq	$32, %rsp
	movq	%rdi, -8(%rbp)
	movq	%rsi, -16(%rbp)
	movq	%rdx, -24(%rbp)
	movb	$1, -25(%rbp)
	movq	-8(%rbp), %rdi
	movq	-16(%rbp), %rsi
	movq	-24(%rbp), %rdx
	callq	_ZNSt11__copy_moveILb0ELb1ESt26random_access_iterator_tagE8__copy_mIiEEPT_PKS3_S6_S4_
	addq	$32, %rsp
	popq	%rbp
	.cfi_def_cfa %rsp, 8
	retq
.Lfunc_end94:
	.size	_ZSt13__copy_move_aILb0EPKiPiET1_T0_S4_S3_, .Lfunc_end94-_ZSt13__copy_move_aILb0EPKiPiET1_T0_S4_S3_
	.cfi_endproc
                                        # -- End function
	.section	.text._ZSt12__niter_baseIPKiET_S2_,"axG",@progbits,_ZSt12__niter_baseIPKiET_S2_,comdat
	.weak	_ZSt12__niter_baseIPKiET_S2_ # -- Begin function _ZSt12__niter_baseIPKiET_S2_
	.p2align	4, 0x90
	.type	_ZSt12__niter_baseIPKiET_S2_,@function
_ZSt12__niter_baseIPKiET_S2_:           # @_ZSt12__niter_baseIPKiET_S2_
	.cfi_startproc
# %bb.0:                                # %entry
	pushq	%rbp
	.cfi_def_cfa_offset 16
	.cfi_offset %rbp, -16
	movq	%rsp, %rbp
	.cfi_def_cfa_register %rbp
	movq	%rdi, -8(%rbp)
	movq	-8(%rbp), %rax
	popq	%rbp
	.cfi_def_cfa %rsp, 8
	retq
.Lfunc_end95:
	.size	_ZSt12__niter_baseIPKiET_S2_, .Lfunc_end95-_ZSt12__niter_baseIPKiET_S2_
	.cfi_endproc
                                        # -- End function
	.section	.text._ZSt12__niter_baseIPiET_S1_,"axG",@progbits,_ZSt12__niter_baseIPiET_S1_,comdat
	.weak	_ZSt12__niter_baseIPiET_S1_ # -- Begin function _ZSt12__niter_baseIPiET_S1_
	.p2align	4, 0x90
	.type	_ZSt12__niter_baseIPiET_S1_,@function
_ZSt12__niter_baseIPiET_S1_:            # @_ZSt12__niter_baseIPiET_S1_
	.cfi_startproc
# %bb.0:                                # %entry
	pushq	%rbp
	.cfi_def_cfa_offset 16
	.cfi_offset %rbp, -16
	movq	%rsp, %rbp
	.cfi_def_cfa_register %rbp
	movq	%rdi, -8(%rbp)
	movq	-8(%rbp), %rax
	popq	%rbp
	.cfi_def_cfa %rsp, 8
	retq
.Lfunc_end96:
	.size	_ZSt12__niter_baseIPiET_S1_, .Lfunc_end96-_ZSt12__niter_baseIPiET_S1_
	.cfi_endproc
                                        # -- End function
	.section	.text._ZNSt11__copy_moveILb0ELb1ESt26random_access_iterator_tagE8__copy_mIiEEPT_PKS3_S6_S4_,"axG",@progbits,_ZNSt11__copy_moveILb0ELb1ESt26random_access_iterator_tagE8__copy_mIiEEPT_PKS3_S6_S4_,comdat
	.weak	_ZNSt11__copy_moveILb0ELb1ESt26random_access_iterator_tagE8__copy_mIiEEPT_PKS3_S6_S4_ # -- Begin function _ZNSt11__copy_moveILb0ELb1ESt26random_access_iterator_tagE8__copy_mIiEEPT_PKS3_S6_S4_
	.p2align	4, 0x90
	.type	_ZNSt11__copy_moveILb0ELb1ESt26random_access_iterator_tagE8__copy_mIiEEPT_PKS3_S6_S4_,@function
_ZNSt11__copy_moveILb0ELb1ESt26random_access_iterator_tagE8__copy_mIiEEPT_PKS3_S6_S4_: # @_ZNSt11__copy_moveILb0ELb1ESt26random_access_iterator_tagE8__copy_mIiEEPT_PKS3_S6_S4_
	.cfi_startproc
# %bb.0:                                # %entry
	pushq	%rbp
	.cfi_def_cfa_offset 16
	.cfi_offset %rbp, -16
	movq	%rsp, %rbp
	.cfi_def_cfa_register %rbp
	subq	$48, %rsp
	movq	%rdi, -8(%rbp)
	movq	%rsi, -16(%rbp)
	movq	%rdx, -24(%rbp)
	movq	-16(%rbp), %rdx
	movq	-8(%rbp), %rsi
	subq	%rsi, %rdx
	sarq	$2, %rdx
	movq	%rdx, -32(%rbp)
	cmpq	$0, -32(%rbp)
	je	.LBB97_2
# %bb.1:                                # %if.then
	movq	-24(%rbp), %rax
	movq	-8(%rbp), %rcx
	movq	-32(%rbp), %rdx
	shlq	$2, %rdx
	movq	%rax, %rdi
	movq	%rcx, %rsi
	callq	memmove
	movq	%rax, -40(%rbp)         # 8-byte Spill
.LBB97_2:                               # %if.end
	movq	-24(%rbp), %rax
	movq	-32(%rbp), %rcx
	shlq	$2, %rcx
	addq	%rcx, %rax
	addq	$48, %rsp
	popq	%rbp
	.cfi_def_cfa %rsp, 8
	retq
.Lfunc_end97:
	.size	_ZNSt11__copy_moveILb0ELb1ESt26random_access_iterator_tagE8__copy_mIiEEPT_PKS3_S6_S4_, .Lfunc_end97-_ZNSt11__copy_moveILb0ELb1ESt26random_access_iterator_tagE8__copy_mIiEEPT_PKS3_S6_S4_
	.cfi_endproc
                                        # -- End function
	.section	.text._ZNKSt16initializer_listIiE4sizeEv,"axG",@progbits,_ZNKSt16initializer_listIiE4sizeEv,comdat
	.weak	_ZNKSt16initializer_listIiE4sizeEv # -- Begin function _ZNKSt16initializer_listIiE4sizeEv
	.p2align	4, 0x90
	.type	_ZNKSt16initializer_listIiE4sizeEv,@function
_ZNKSt16initializer_listIiE4sizeEv:     # @_ZNKSt16initializer_listIiE4sizeEv
	.cfi_startproc
# %bb.0:                                # %entry
	pushq	%rbp
	.cfi_def_cfa_offset 16
	.cfi_offset %rbp, -16
	movq	%rsp, %rbp
	.cfi_def_cfa_register %rbp
	movq	%rdi, -8(%rbp)
	movq	-8(%rbp), %rdi
	movq	8(%rdi), %rax
	popq	%rbp
	.cfi_def_cfa %rsp, 8
	retq
.Lfunc_end98:
	.size	_ZNKSt16initializer_listIiE4sizeEv, .Lfunc_end98-_ZNKSt16initializer_listIiE4sizeEv
	.cfi_endproc
                                        # -- End function
	.section	.text._ZNSt12_Vector_baseIiSaIiEE13_M_deallocateEPim,"axG",@progbits,_ZNSt12_Vector_baseIiSaIiEE13_M_deallocateEPim,comdat
	.weak	_ZNSt12_Vector_baseIiSaIiEE13_M_deallocateEPim # -- Begin function _ZNSt12_Vector_baseIiSaIiEE13_M_deallocateEPim
	.p2align	4, 0x90
	.type	_ZNSt12_Vector_baseIiSaIiEE13_M_deallocateEPim,@function
_ZNSt12_Vector_baseIiSaIiEE13_M_deallocateEPim: # @_ZNSt12_Vector_baseIiSaIiEE13_M_deallocateEPim
	.cfi_startproc
# %bb.0:                                # %entry
	pushq	%rbp
	.cfi_def_cfa_offset 16
	.cfi_offset %rbp, -16
	movq	%rsp, %rbp
	.cfi_def_cfa_register %rbp
	subq	$32, %rsp
	movq	%rdi, -8(%rbp)
	movq	%rsi, -16(%rbp)
	movq	%rdx, -24(%rbp)
	movq	-8(%rbp), %rdx
	cmpq	$0, -16(%rbp)
	movq	%rdx, -32(%rbp)         # 8-byte Spill
	je	.LBB99_2
# %bb.1:                                # %if.then
	movq	-32(%rbp), %rax         # 8-byte Reload
	movq	-16(%rbp), %rsi
	movq	-24(%rbp), %rdx
	movq	%rax, %rdi
	callq	_ZNSt16allocator_traitsISaIiEE10deallocateERS0_Pim
.LBB99_2:                               # %if.end
	addq	$32, %rsp
	popq	%rbp
	.cfi_def_cfa %rsp, 8
	retq
.Lfunc_end99:
	.size	_ZNSt12_Vector_baseIiSaIiEE13_M_deallocateEPim, .Lfunc_end99-_ZNSt12_Vector_baseIiSaIiEE13_M_deallocateEPim
	.cfi_endproc
                                        # -- End function
	.section	.text._ZNSt12_Vector_baseIiSaIiEE12_Vector_implD2Ev,"axG",@progbits,_ZNSt12_Vector_baseIiSaIiEE12_Vector_implD2Ev,comdat
	.weak	_ZNSt12_Vector_baseIiSaIiEE12_Vector_implD2Ev # -- Begin function _ZNSt12_Vector_baseIiSaIiEE12_Vector_implD2Ev
	.p2align	4, 0x90
	.type	_ZNSt12_Vector_baseIiSaIiEE12_Vector_implD2Ev,@function
_ZNSt12_Vector_baseIiSaIiEE12_Vector_implD2Ev: # @_ZNSt12_Vector_baseIiSaIiEE12_Vector_implD2Ev
	.cfi_startproc
# %bb.0:                                # %entry
	pushq	%rbp
	.cfi_def_cfa_offset 16
	.cfi_offset %rbp, -16
	movq	%rsp, %rbp
	.cfi_def_cfa_register %rbp
	subq	$16, %rsp
	movq	%rdi, -8(%rbp)
	movq	-8(%rbp), %rdi
	callq	_ZNSaIiED2Ev
	addq	$16, %rsp
	popq	%rbp
	.cfi_def_cfa %rsp, 8
	retq
.Lfunc_end100:
	.size	_ZNSt12_Vector_baseIiSaIiEE12_Vector_implD2Ev, .Lfunc_end100-_ZNSt12_Vector_baseIiSaIiEE12_Vector_implD2Ev
	.cfi_endproc
                                        # -- End function
	.section	.text._ZNSt16allocator_traitsISaIiEE10deallocateERS0_Pim,"axG",@progbits,_ZNSt16allocator_traitsISaIiEE10deallocateERS0_Pim,comdat
	.weak	_ZNSt16allocator_traitsISaIiEE10deallocateERS0_Pim # -- Begin function _ZNSt16allocator_traitsISaIiEE10deallocateERS0_Pim
	.p2align	4, 0x90
	.type	_ZNSt16allocator_traitsISaIiEE10deallocateERS0_Pim,@function
_ZNSt16allocator_traitsISaIiEE10deallocateERS0_Pim: # @_ZNSt16allocator_traitsISaIiEE10deallocateERS0_Pim
	.cfi_startproc
# %bb.0:                                # %entry
	pushq	%rbp
	.cfi_def_cfa_offset 16
	.cfi_offset %rbp, -16
	movq	%rsp, %rbp
	.cfi_def_cfa_register %rbp
	subq	$32, %rsp
	movq	%rdi, -8(%rbp)
	movq	%rsi, -16(%rbp)
	movq	%rdx, -24(%rbp)
	movq	-8(%rbp), %rdx
	movq	-16(%rbp), %rsi
	movq	-24(%rbp), %rdi
	movq	%rdi, -32(%rbp)         # 8-byte Spill
	movq	%rdx, %rdi
	movq	-32(%rbp), %rdx         # 8-byte Reload
	callq	_ZN9__gnu_cxx13new_allocatorIiE10deallocateEPim
	addq	$32, %rsp
	popq	%rbp
	.cfi_def_cfa %rsp, 8
	retq
.Lfunc_end101:
	.size	_ZNSt16allocator_traitsISaIiEE10deallocateERS0_Pim, .Lfunc_end101-_ZNSt16allocator_traitsISaIiEE10deallocateERS0_Pim
	.cfi_endproc
                                        # -- End function
	.section	.text._ZN9__gnu_cxx13new_allocatorIiE10deallocateEPim,"axG",@progbits,_ZN9__gnu_cxx13new_allocatorIiE10deallocateEPim,comdat
	.weak	_ZN9__gnu_cxx13new_allocatorIiE10deallocateEPim # -- Begin function _ZN9__gnu_cxx13new_allocatorIiE10deallocateEPim
	.p2align	4, 0x90
	.type	_ZN9__gnu_cxx13new_allocatorIiE10deallocateEPim,@function
_ZN9__gnu_cxx13new_allocatorIiE10deallocateEPim: # @_ZN9__gnu_cxx13new_allocatorIiE10deallocateEPim
	.cfi_startproc
# %bb.0:                                # %entry
	pushq	%rbp
	.cfi_def_cfa_offset 16
	.cfi_offset %rbp, -16
	movq	%rsp, %rbp
	.cfi_def_cfa_register %rbp
	subq	$32, %rsp
	movq	%rdi, -8(%rbp)
	movq	%rsi, -16(%rbp)
	movq	%rdx, -24(%rbp)
	movq	-16(%rbp), %rdx
	movq	%rdx, %rdi
	callq	_ZdlPv
	addq	$32, %rsp
	popq	%rbp
	.cfi_def_cfa %rsp, 8
	retq
.Lfunc_end102:
	.size	_ZN9__gnu_cxx13new_allocatorIiE10deallocateEPim, .Lfunc_end102-_ZN9__gnu_cxx13new_allocatorIiE10deallocateEPim
	.cfi_endproc
                                        # -- End function
	.section	.text._ZSt8_DestroyIPiiEvT_S1_RSaIT0_E,"axG",@progbits,_ZSt8_DestroyIPiiEvT_S1_RSaIT0_E,comdat
	.weak	_ZSt8_DestroyIPiiEvT_S1_RSaIT0_E # -- Begin function _ZSt8_DestroyIPiiEvT_S1_RSaIT0_E
	.p2align	4, 0x90
	.type	_ZSt8_DestroyIPiiEvT_S1_RSaIT0_E,@function
_ZSt8_DestroyIPiiEvT_S1_RSaIT0_E:       # @_ZSt8_DestroyIPiiEvT_S1_RSaIT0_E
	.cfi_startproc
# %bb.0:                                # %entry
	pushq	%rbp
	.cfi_def_cfa_offset 16
	.cfi_offset %rbp, -16
	movq	%rsp, %rbp
	.cfi_def_cfa_register %rbp
	subq	$32, %rsp
	movq	%rdi, -8(%rbp)
	movq	%rsi, -16(%rbp)
	movq	%rdx, -24(%rbp)
	movq	-8(%rbp), %rdi
	movq	-16(%rbp), %rsi
	callq	_ZSt8_DestroyIPiEvT_S1_
	addq	$32, %rsp
	popq	%rbp
	.cfi_def_cfa %rsp, 8
	retq
.Lfunc_end103:
	.size	_ZSt8_DestroyIPiiEvT_S1_RSaIT0_E, .Lfunc_end103-_ZSt8_DestroyIPiiEvT_S1_RSaIT0_E
	.cfi_endproc
                                        # -- End function
	.section	.text._ZSt8_DestroyIPiEvT_S1_,"axG",@progbits,_ZSt8_DestroyIPiEvT_S1_,comdat
	.weak	_ZSt8_DestroyIPiEvT_S1_ # -- Begin function _ZSt8_DestroyIPiEvT_S1_
	.p2align	4, 0x90
	.type	_ZSt8_DestroyIPiEvT_S1_,@function
_ZSt8_DestroyIPiEvT_S1_:                # @_ZSt8_DestroyIPiEvT_S1_
	.cfi_startproc
# %bb.0:                                # %entry
	pushq	%rbp
	.cfi_def_cfa_offset 16
	.cfi_offset %rbp, -16
	movq	%rsp, %rbp
	.cfi_def_cfa_register %rbp
	subq	$16, %rsp
	movq	%rdi, -8(%rbp)
	movq	%rsi, -16(%rbp)
	movq	-8(%rbp), %rdi
	movq	-16(%rbp), %rsi
	callq	_ZNSt12_Destroy_auxILb1EE9__destroyIPiEEvT_S3_
	addq	$16, %rsp
	popq	%rbp
	.cfi_def_cfa %rsp, 8
	retq
.Lfunc_end104:
	.size	_ZSt8_DestroyIPiEvT_S1_, .Lfunc_end104-_ZSt8_DestroyIPiEvT_S1_
	.cfi_endproc
                                        # -- End function
	.section	.text._ZNSt12_Destroy_auxILb1EE9__destroyIPiEEvT_S3_,"axG",@progbits,_ZNSt12_Destroy_auxILb1EE9__destroyIPiEEvT_S3_,comdat
	.weak	_ZNSt12_Destroy_auxILb1EE9__destroyIPiEEvT_S3_ # -- Begin function _ZNSt12_Destroy_auxILb1EE9__destroyIPiEEvT_S3_
	.p2align	4, 0x90
	.type	_ZNSt12_Destroy_auxILb1EE9__destroyIPiEEvT_S3_,@function
_ZNSt12_Destroy_auxILb1EE9__destroyIPiEEvT_S3_: # @_ZNSt12_Destroy_auxILb1EE9__destroyIPiEEvT_S3_
	.cfi_startproc
# %bb.0:                                # %entry
	pushq	%rbp
	.cfi_def_cfa_offset 16
	.cfi_offset %rbp, -16
	movq	%rsp, %rbp
	.cfi_def_cfa_register %rbp
	movq	%rdi, -8(%rbp)
	movq	%rsi, -16(%rbp)
	popq	%rbp
	.cfi_def_cfa %rsp, 8
	retq
.Lfunc_end105:
	.size	_ZNSt12_Destroy_auxILb1EE9__destroyIPiEEvT_S3_, .Lfunc_end105-_ZNSt12_Destroy_auxILb1EE9__destroyIPiEEvT_S3_
	.cfi_endproc
                                        # -- End function
	.section	.text._ZN15uniform_randgenIfEC2Effj,"axG",@progbits,_ZN15uniform_randgenIfEC2Effj,comdat
	.weak	_ZN15uniform_randgenIfEC2Effj # -- Begin function _ZN15uniform_randgenIfEC2Effj
	.p2align	4, 0x90
	.type	_ZN15uniform_randgenIfEC2Effj,@function
_ZN15uniform_randgenIfEC2Effj:          # @_ZN15uniform_randgenIfEC2Effj
	.cfi_startproc
# %bb.0:                                # %entry
	pushq	%rbp
	.cfi_def_cfa_offset 16
	.cfi_offset %rbp, -16
	movq	%rsp, %rbp
	.cfi_def_cfa_register %rbp
	subq	$32, %rsp
	movl	$1, %eax
	movl	%eax, %ecx
	movq	%rdi, -8(%rbp)
	movss	%xmm0, -12(%rbp)
	movss	%xmm1, -16(%rbp)
	movl	%esi, -20(%rbp)
	movq	-8(%rbp), %rdi
	movq	%rdi, -32(%rbp)         # 8-byte Spill
	movq	%rcx, %rsi
	callq	_ZNSt26linear_congruential_engineImLm16807ELm0ELm2147483647EEC2Em
	movq	-32(%rbp), %rcx         # 8-byte Reload
	addq	$8, %rcx
	movss	-12(%rbp), %xmm0        # xmm0 = mem[0],zero,zero,zero
	movss	-16(%rbp), %xmm1        # xmm1 = mem[0],zero,zero,zero
	movq	%rcx, %rdi
	callq	_ZNSt25uniform_real_distributionIfEC2Eff
	movl	-20(%rbp), %eax
	movl	%eax, %esi
	movq	-32(%rbp), %rdi         # 8-byte Reload
	callq	_ZNSt26linear_congruential_engineImLm16807ELm0ELm2147483647EE4seedEm
	movq	-32(%rbp), %rcx         # 8-byte Reload
	addq	$8, %rcx
	movq	%rcx, %rdi
	movq	-32(%rbp), %rsi         # 8-byte Reload
	callq	_ZNSt25uniform_real_distributionIfEclISt26linear_congruential_engineImLm16807ELm0ELm2147483647EEEEfRT_
	movq	-32(%rbp), %rcx         # 8-byte Reload
	movss	%xmm0, 16(%rcx)
	addq	$32, %rsp
	popq	%rbp
	.cfi_def_cfa %rsp, 8
	retq
.Lfunc_end106:
	.size	_ZN15uniform_randgenIfEC2Effj, .Lfunc_end106-_ZN15uniform_randgenIfEC2Effj
	.cfi_endproc
                                        # -- End function
	.section	.text._ZN6TensorIfEC2I15uniform_randgenIfEEERKSt6vectorIiSaIiEET_,"axG",@progbits,_ZN6TensorIfEC2I15uniform_randgenIfEEERKSt6vectorIiSaIiEET_,comdat
	.weak	_ZN6TensorIfEC2I15uniform_randgenIfEEERKSt6vectorIiSaIiEET_ # -- Begin function _ZN6TensorIfEC2I15uniform_randgenIfEEERKSt6vectorIiSaIiEET_
	.p2align	4, 0x90
	.type	_ZN6TensorIfEC2I15uniform_randgenIfEEERKSt6vectorIiSaIiEET_,@function
_ZN6TensorIfEC2I15uniform_randgenIfEEERKSt6vectorIiSaIiEET_: # @_ZN6TensorIfEC2I15uniform_randgenIfEEERKSt6vectorIiSaIiEET_
.Lfunc_begin11:
	.cfi_startproc
	.cfi_personality 3, __gxx_personality_v0
	.cfi_lsda 3, .Lexception11
# %bb.0:                                # %entry
	pushq	%rbp
	.cfi_def_cfa_offset 16
	.cfi_offset %rbp, -16
	movq	%rsp, %rbp
	.cfi_def_cfa_register %rbp
	subq	$112, %rsp
	leaq	16(%rbp), %rax
	movq	%rdi, -8(%rbp)
	movq	%rsi, -16(%rbp)
	movq	-8(%rbp), %rsi
	movq	-16(%rbp), %rdi
	movq	%rdi, -72(%rbp)         # 8-byte Spill
	movq	%rsi, %rdi
	movq	-72(%rbp), %rcx         # 8-byte Reload
	movq	%rsi, -80(%rbp)         # 8-byte Spill
	movq	%rcx, %rsi
	movq	%rax, -88(%rbp)         # 8-byte Spill
	callq	_ZN6TensorIfEC2ERKSt6vectorIiSaIiEE
	movq	-80(%rbp), %rax         # 8-byte Reload
	movq	%rax, -24(%rbp)
	movq	-24(%rbp), %rdi
	callq	_ZNSt6vectorIfSaIfEE5beginEv
	movq	%rax, -32(%rbp)
	movq	-24(%rbp), %rdi
	callq	_ZNSt6vectorIfSaIfEE3endEv
	movq	%rax, -40(%rbp)
.LBB107_1:                              # %for.cond
                                        # =>This Inner Loop Header: Depth=1
	leaq	-32(%rbp), %rdi
	leaq	-40(%rbp), %rsi
	callq	_ZN9__gnu_cxxneIPfSt6vectorIfSaIfEEEEbRKNS_17__normal_iteratorIT_T0_EESA_
	testb	$1, %al
	jne	.LBB107_2
	jmp	.LBB107_7
.LBB107_2:                              # %for.body
                                        #   in Loop: Header=BB107_1 Depth=1
	leaq	-32(%rbp), %rdi
	callq	_ZNK9__gnu_cxx17__normal_iteratorIPfSt6vectorIfSaIfEEEdeEv
	movq	%rax, -48(%rbp)
.Ltmp240:
	movq	-88(%rbp), %rdi         # 8-byte Reload
	callq	_ZN15uniform_randgenIfEdeEv
.Ltmp241:
	movss	%xmm0, -92(%rbp)        # 4-byte Spill
	jmp	.LBB107_3
.LBB107_3:                              # %invoke.cont
                                        #   in Loop: Header=BB107_1 Depth=1
	movq	-48(%rbp), %rax
	movss	-92(%rbp), %xmm0        # 4-byte Reload
                                        # xmm0 = mem[0],zero,zero,zero
	movss	%xmm0, (%rax)
.Ltmp242:
	movq	-88(%rbp), %rdi         # 8-byte Reload
	callq	_ZN15uniform_randgenIfEppEv
.Ltmp243:
	movq	%rax, -104(%rbp)        # 8-byte Spill
	jmp	.LBB107_4
.LBB107_4:                              # %invoke.cont7
                                        #   in Loop: Header=BB107_1 Depth=1
	jmp	.LBB107_5
.LBB107_5:                              # %for.inc
                                        #   in Loop: Header=BB107_1 Depth=1
	leaq	-32(%rbp), %rdi
	callq	_ZN9__gnu_cxx17__normal_iteratorIPfSt6vectorIfSaIfEEEppEv
	movq	%rax, -112(%rbp)        # 8-byte Spill
	jmp	.LBB107_1
.LBB107_6:                              # %lpad
.Ltmp244:
	movl	%edx, %ecx
	movq	%rax, -56(%rbp)
	movl	%ecx, -60(%rbp)
	movq	-80(%rbp), %rdi         # 8-byte Reload
	callq	_ZN6TensorIfED2Ev
	jmp	.LBB107_8
.LBB107_7:                              # %for.end
	addq	$112, %rsp
	popq	%rbp
	.cfi_def_cfa %rsp, 8
	retq
.LBB107_8:                              # %eh.resume
	.cfi_def_cfa %rbp, 16
	movq	-56(%rbp), %rdi
	callq	_Unwind_Resume
.Lfunc_end107:
	.size	_ZN6TensorIfEC2I15uniform_randgenIfEEERKSt6vectorIiSaIiEET_, .Lfunc_end107-_ZN6TensorIfEC2I15uniform_randgenIfEEERKSt6vectorIiSaIiEET_
	.cfi_endproc
	.section	.gcc_except_table,"a",@progbits
	.p2align	2
GCC_except_table107:
.Lexception11:
	.byte	255                     # @LPStart Encoding = omit
	.byte	255                     # @TType Encoding = omit
	.byte	1                       # Call site Encoding = uleb128
	.uleb128 .Lcst_end11-.Lcst_begin11
.Lcst_begin11:
	.uleb128 .Lfunc_begin11-.Lfunc_begin11 # >> Call Site 1 <<
	.uleb128 .Ltmp240-.Lfunc_begin11 #   Call between .Lfunc_begin11 and .Ltmp240
	.byte	0                       #     has no landing pad
	.byte	0                       #   On action: cleanup
	.uleb128 .Ltmp240-.Lfunc_begin11 # >> Call Site 2 <<
	.uleb128 .Ltmp243-.Ltmp240      #   Call between .Ltmp240 and .Ltmp243
	.uleb128 .Ltmp244-.Lfunc_begin11 #     jumps to .Ltmp244
	.byte	0                       #   On action: cleanup
	.uleb128 .Ltmp243-.Lfunc_begin11 # >> Call Site 3 <<
	.uleb128 .Lfunc_end107-.Ltmp243 #   Call between .Ltmp243 and .Lfunc_end107
	.byte	0                       #     has no landing pad
	.byte	0                       #   On action: cleanup
.Lcst_end11:
	.p2align	2
                                        # -- End function
	.section	.text._ZNSt26linear_congruential_engineImLm16807ELm0ELm2147483647EEC2Em,"axG",@progbits,_ZNSt26linear_congruential_engineImLm16807ELm0ELm2147483647EEC2Em,comdat
	.weak	_ZNSt26linear_congruential_engineImLm16807ELm0ELm2147483647EEC2Em # -- Begin function _ZNSt26linear_congruential_engineImLm16807ELm0ELm2147483647EEC2Em
	.p2align	4, 0x90
	.type	_ZNSt26linear_congruential_engineImLm16807ELm0ELm2147483647EEC2Em,@function
_ZNSt26linear_congruential_engineImLm16807ELm0ELm2147483647EEC2Em: # @_ZNSt26linear_congruential_engineImLm16807ELm0ELm2147483647EEC2Em
	.cfi_startproc
# %bb.0:                                # %entry
	pushq	%rbp
	.cfi_def_cfa_offset 16
	.cfi_offset %rbp, -16
	movq	%rsp, %rbp
	.cfi_def_cfa_register %rbp
	subq	$16, %rsp
	movq	%rdi, -8(%rbp)
	movq	%rsi, -16(%rbp)
	movq	-8(%rbp), %rdi
	movq	-16(%rbp), %rsi
	callq	_ZNSt26linear_congruential_engineImLm16807ELm0ELm2147483647EE4seedEm
	addq	$16, %rsp
	popq	%rbp
	.cfi_def_cfa %rsp, 8
	retq
.Lfunc_end108:
	.size	_ZNSt26linear_congruential_engineImLm16807ELm0ELm2147483647EEC2Em, .Lfunc_end108-_ZNSt26linear_congruential_engineImLm16807ELm0ELm2147483647EEC2Em
	.cfi_endproc
                                        # -- End function
	.section	.text._ZNSt25uniform_real_distributionIfEC2Eff,"axG",@progbits,_ZNSt25uniform_real_distributionIfEC2Eff,comdat
	.weak	_ZNSt25uniform_real_distributionIfEC2Eff # -- Begin function _ZNSt25uniform_real_distributionIfEC2Eff
	.p2align	4, 0x90
	.type	_ZNSt25uniform_real_distributionIfEC2Eff,@function
_ZNSt25uniform_real_distributionIfEC2Eff: # @_ZNSt25uniform_real_distributionIfEC2Eff
	.cfi_startproc
# %bb.0:                                # %entry
	pushq	%rbp
	.cfi_def_cfa_offset 16
	.cfi_offset %rbp, -16
	movq	%rsp, %rbp
	.cfi_def_cfa_register %rbp
	subq	$16, %rsp
	movq	%rdi, -8(%rbp)
	movss	%xmm0, -12(%rbp)
	movss	%xmm1, -16(%rbp)
	movq	-8(%rbp), %rdi
	movss	-12(%rbp), %xmm0        # xmm0 = mem[0],zero,zero,zero
	movss	-16(%rbp), %xmm1        # xmm1 = mem[0],zero,zero,zero
	callq	_ZNSt25uniform_real_distributionIfE10param_typeC2Eff
	addq	$16, %rsp
	popq	%rbp
	.cfi_def_cfa %rsp, 8
	retq
.Lfunc_end109:
	.size	_ZNSt25uniform_real_distributionIfEC2Eff, .Lfunc_end109-_ZNSt25uniform_real_distributionIfEC2Eff
	.cfi_endproc
                                        # -- End function
	.section	.text._ZNSt26linear_congruential_engineImLm16807ELm0ELm2147483647EE4seedEm,"axG",@progbits,_ZNSt26linear_congruential_engineImLm16807ELm0ELm2147483647EE4seedEm,comdat
	.weak	_ZNSt26linear_congruential_engineImLm16807ELm0ELm2147483647EE4seedEm # -- Begin function _ZNSt26linear_congruential_engineImLm16807ELm0ELm2147483647EE4seedEm
	.p2align	4, 0x90
	.type	_ZNSt26linear_congruential_engineImLm16807ELm0ELm2147483647EE4seedEm,@function
_ZNSt26linear_congruential_engineImLm16807ELm0ELm2147483647EE4seedEm: # @_ZNSt26linear_congruential_engineImLm16807ELm0ELm2147483647EE4seedEm
	.cfi_startproc
# %bb.0:                                # %entry
	pushq	%rbp
	.cfi_def_cfa_offset 16
	.cfi_offset %rbp, -16
	movq	%rsp, %rbp
	.cfi_def_cfa_register %rbp
	subq	$32, %rsp
	xorl	%eax, %eax
	movl	%eax, %ecx
	movq	%rdi, -8(%rbp)
	movq	%rsi, -16(%rbp)
	movq	-8(%rbp), %rsi
	movq	%rcx, %rdi
	movq	%rsi, -24(%rbp)         # 8-byte Spill
	callq	_ZNSt8__detail5__modImLm2147483647ELm1ELm0EEET_S1_
	cmpq	$0, %rax
	jne	.LBB110_3
# %bb.1:                                # %land.lhs.true
	movq	-16(%rbp), %rdi
	callq	_ZNSt8__detail5__modImLm2147483647ELm1ELm0EEET_S1_
	cmpq	$0, %rax
	jne	.LBB110_3
# %bb.2:                                # %if.then
	movq	-24(%rbp), %rax         # 8-byte Reload
	movq	$1, (%rax)
	jmp	.LBB110_4
.LBB110_3:                              # %if.else
	movq	-16(%rbp), %rdi
	callq	_ZNSt8__detail5__modImLm2147483647ELm1ELm0EEET_S1_
	movq	-24(%rbp), %rdi         # 8-byte Reload
	movq	%rax, (%rdi)
.LBB110_4:                              # %if.end
	addq	$32, %rsp
	popq	%rbp
	.cfi_def_cfa %rsp, 8
	retq
.Lfunc_end110:
	.size	_ZNSt26linear_congruential_engineImLm16807ELm0ELm2147483647EE4seedEm, .Lfunc_end110-_ZNSt26linear_congruential_engineImLm16807ELm0ELm2147483647EE4seedEm
	.cfi_endproc
                                        # -- End function
	.section	.text._ZNSt25uniform_real_distributionIfEclISt26linear_congruential_engineImLm16807ELm0ELm2147483647EEEEfRT_,"axG",@progbits,_ZNSt25uniform_real_distributionIfEclISt26linear_congruential_engineImLm16807ELm0ELm2147483647EEEEfRT_,comdat
	.weak	_ZNSt25uniform_real_distributionIfEclISt26linear_congruential_engineImLm16807ELm0ELm2147483647EEEEfRT_ # -- Begin function _ZNSt25uniform_real_distributionIfEclISt26linear_congruential_engineImLm16807ELm0ELm2147483647EEEEfRT_
	.p2align	4, 0x90
	.type	_ZNSt25uniform_real_distributionIfEclISt26linear_congruential_engineImLm16807ELm0ELm2147483647EEEEfRT_,@function
_ZNSt25uniform_real_distributionIfEclISt26linear_congruential_engineImLm16807ELm0ELm2147483647EEEEfRT_: # @_ZNSt25uniform_real_distributionIfEclISt26linear_congruential_engineImLm16807ELm0ELm2147483647EEEEfRT_
	.cfi_startproc
# %bb.0:                                # %entry
	pushq	%rbp
	.cfi_def_cfa_offset 16
	.cfi_offset %rbp, -16
	movq	%rsp, %rbp
	.cfi_def_cfa_register %rbp
	subq	$32, %rsp
	movq	%rdi, -8(%rbp)
	movq	%rsi, -16(%rbp)
	movq	-8(%rbp), %rsi
	movq	-16(%rbp), %rdi
	movq	%rdi, -24(%rbp)         # 8-byte Spill
	movq	%rsi, %rdi
	movq	-24(%rbp), %rax         # 8-byte Reload
	movq	%rsi, -32(%rbp)         # 8-byte Spill
	movq	%rax, %rsi
	movq	-32(%rbp), %rdx         # 8-byte Reload
	callq	_ZNSt25uniform_real_distributionIfEclISt26linear_congruential_engineImLm16807ELm0ELm2147483647EEEEfRT_RKNS0_10param_typeE
	addq	$32, %rsp
	popq	%rbp
	.cfi_def_cfa %rsp, 8
	retq
.Lfunc_end111:
	.size	_ZNSt25uniform_real_distributionIfEclISt26linear_congruential_engineImLm16807ELm0ELm2147483647EEEEfRT_, .Lfunc_end111-_ZNSt25uniform_real_distributionIfEclISt26linear_congruential_engineImLm16807ELm0ELm2147483647EEEEfRT_
	.cfi_endproc
                                        # -- End function
	.section	.text._ZNSt25uniform_real_distributionIfE10param_typeC2Eff,"axG",@progbits,_ZNSt25uniform_real_distributionIfE10param_typeC2Eff,comdat
	.weak	_ZNSt25uniform_real_distributionIfE10param_typeC2Eff # -- Begin function _ZNSt25uniform_real_distributionIfE10param_typeC2Eff
	.p2align	4, 0x90
	.type	_ZNSt25uniform_real_distributionIfE10param_typeC2Eff,@function
_ZNSt25uniform_real_distributionIfE10param_typeC2Eff: # @_ZNSt25uniform_real_distributionIfE10param_typeC2Eff
	.cfi_startproc
# %bb.0:                                # %entry
	pushq	%rbp
	.cfi_def_cfa_offset 16
	.cfi_offset %rbp, -16
	movq	%rsp, %rbp
	.cfi_def_cfa_register %rbp
	movq	%rdi, -8(%rbp)
	movss	%xmm0, -12(%rbp)
	movss	%xmm1, -16(%rbp)
	movq	-8(%rbp), %rdi
	movss	-12(%rbp), %xmm0        # xmm0 = mem[0],zero,zero,zero
	movss	%xmm0, (%rdi)
	movss	-16(%rbp), %xmm0        # xmm0 = mem[0],zero,zero,zero
	movss	%xmm0, 4(%rdi)
	popq	%rbp
	.cfi_def_cfa %rsp, 8
	retq
.Lfunc_end112:
	.size	_ZNSt25uniform_real_distributionIfE10param_typeC2Eff, .Lfunc_end112-_ZNSt25uniform_real_distributionIfE10param_typeC2Eff
	.cfi_endproc
                                        # -- End function
	.section	.text._ZNSt8__detail5__modImLm2147483647ELm1ELm0EEET_S1_,"axG",@progbits,_ZNSt8__detail5__modImLm2147483647ELm1ELm0EEET_S1_,comdat
	.weak	_ZNSt8__detail5__modImLm2147483647ELm1ELm0EEET_S1_ # -- Begin function _ZNSt8__detail5__modImLm2147483647ELm1ELm0EEET_S1_
	.p2align	4, 0x90
	.type	_ZNSt8__detail5__modImLm2147483647ELm1ELm0EEET_S1_,@function
_ZNSt8__detail5__modImLm2147483647ELm1ELm0EEET_S1_: # @_ZNSt8__detail5__modImLm2147483647ELm1ELm0EEET_S1_
	.cfi_startproc
# %bb.0:                                # %entry
	pushq	%rbp
	.cfi_def_cfa_offset 16
	.cfi_offset %rbp, -16
	movq	%rsp, %rbp
	.cfi_def_cfa_register %rbp
	subq	$16, %rsp
	movq	%rdi, -8(%rbp)
	movq	-8(%rbp), %rdi
	callq	_ZNSt8__detail4_ModImLm2147483647ELm1ELm0ELb1ELb1EE6__calcEm
	addq	$16, %rsp
	popq	%rbp
	.cfi_def_cfa %rsp, 8
	retq
.Lfunc_end113:
	.size	_ZNSt8__detail5__modImLm2147483647ELm1ELm0EEET_S1_, .Lfunc_end113-_ZNSt8__detail5__modImLm2147483647ELm1ELm0EEET_S1_
	.cfi_endproc
                                        # -- End function
	.section	.text._ZNSt8__detail4_ModImLm2147483647ELm1ELm0ELb1ELb1EE6__calcEm,"axG",@progbits,_ZNSt8__detail4_ModImLm2147483647ELm1ELm0ELb1ELb1EE6__calcEm,comdat
	.weak	_ZNSt8__detail4_ModImLm2147483647ELm1ELm0ELb1ELb1EE6__calcEm # -- Begin function _ZNSt8__detail4_ModImLm2147483647ELm1ELm0ELb1ELb1EE6__calcEm
	.p2align	4, 0x90
	.type	_ZNSt8__detail4_ModImLm2147483647ELm1ELm0ELb1ELb1EE6__calcEm,@function
_ZNSt8__detail4_ModImLm2147483647ELm1ELm0ELb1ELb1EE6__calcEm: # @_ZNSt8__detail4_ModImLm2147483647ELm1ELm0ELb1ELb1EE6__calcEm
	.cfi_startproc
# %bb.0:                                # %entry
	pushq	%rbp
	.cfi_def_cfa_offset 16
	.cfi_offset %rbp, -16
	movq	%rsp, %rbp
	.cfi_def_cfa_register %rbp
	movl	$2147483647, %eax       # imm = 0x7FFFFFFF
	movl	%eax, %ecx
	movq	%rdi, -8(%rbp)
	movq	-8(%rbp), %rdi
	shlq	$0, %rdi
	addq	$0, %rdi
	movq	%rdi, -16(%rbp)
	movq	-16(%rbp), %rax
	xorl	%edx, %edx
                                        # kill: def $rdx killed $edx
	divq	%rcx
	movq	%rdx, -16(%rbp)
	movq	-16(%rbp), %rcx
	movq	%rcx, %rax
	popq	%rbp
	.cfi_def_cfa %rsp, 8
	retq
.Lfunc_end114:
	.size	_ZNSt8__detail4_ModImLm2147483647ELm1ELm0ELb1ELb1EE6__calcEm, .Lfunc_end114-_ZNSt8__detail4_ModImLm2147483647ELm1ELm0ELb1ELb1EE6__calcEm
	.cfi_endproc
                                        # -- End function
	.section	.text._ZNSt25uniform_real_distributionIfEclISt26linear_congruential_engineImLm16807ELm0ELm2147483647EEEEfRT_RKNS0_10param_typeE,"axG",@progbits,_ZNSt25uniform_real_distributionIfEclISt26linear_congruential_engineImLm16807ELm0ELm2147483647EEEEfRT_RKNS0_10param_typeE,comdat
	.weak	_ZNSt25uniform_real_distributionIfEclISt26linear_congruential_engineImLm16807ELm0ELm2147483647EEEEfRT_RKNS0_10param_typeE # -- Begin function _ZNSt25uniform_real_distributionIfEclISt26linear_congruential_engineImLm16807ELm0ELm2147483647EEEEfRT_RKNS0_10param_typeE
	.p2align	4, 0x90
	.type	_ZNSt25uniform_real_distributionIfEclISt26linear_congruential_engineImLm16807ELm0ELm2147483647EEEEfRT_RKNS0_10param_typeE,@function
_ZNSt25uniform_real_distributionIfEclISt26linear_congruential_engineImLm16807ELm0ELm2147483647EEEEfRT_RKNS0_10param_typeE: # @_ZNSt25uniform_real_distributionIfEclISt26linear_congruential_engineImLm16807ELm0ELm2147483647EEEEfRT_RKNS0_10param_typeE
	.cfi_startproc
# %bb.0:                                # %entry
	pushq	%rbp
	.cfi_def_cfa_offset 16
	.cfi_offset %rbp, -16
	movq	%rsp, %rbp
	.cfi_def_cfa_register %rbp
	subq	$48, %rsp
	movq	%rdi, -8(%rbp)
	movq	%rsi, -16(%rbp)
	movq	%rdx, -24(%rbp)
	movq	-16(%rbp), %rsi
	leaq	-32(%rbp), %rdi
	callq	_ZNSt8__detail8_AdaptorISt26linear_congruential_engineImLm16807ELm0ELm2147483647EEfEC2ERS2_
	leaq	-32(%rbp), %rdi
	callq	_ZNSt8__detail8_AdaptorISt26linear_congruential_engineImLm16807ELm0ELm2147483647EEfEclEv
	movq	-24(%rbp), %rdi
	movss	%xmm0, -36(%rbp)        # 4-byte Spill
	callq	_ZNKSt25uniform_real_distributionIfE10param_type1bEv
	movq	-24(%rbp), %rdi
	movss	%xmm0, -40(%rbp)        # 4-byte Spill
	callq	_ZNKSt25uniform_real_distributionIfE10param_type1aEv
	movss	-40(%rbp), %xmm1        # 4-byte Reload
                                        # xmm1 = mem[0],zero,zero,zero
	subss	%xmm0, %xmm1
	movss	-36(%rbp), %xmm0        # 4-byte Reload
                                        # xmm0 = mem[0],zero,zero,zero
	mulss	%xmm1, %xmm0
	movq	-24(%rbp), %rdi
	movss	%xmm0, -44(%rbp)        # 4-byte Spill
	callq	_ZNKSt25uniform_real_distributionIfE10param_type1aEv
	movss	-44(%rbp), %xmm1        # 4-byte Reload
                                        # xmm1 = mem[0],zero,zero,zero
	addss	%xmm0, %xmm1
	movaps	%xmm1, %xmm0
	addq	$48, %rsp
	popq	%rbp
	.cfi_def_cfa %rsp, 8
	retq
.Lfunc_end115:
	.size	_ZNSt25uniform_real_distributionIfEclISt26linear_congruential_engineImLm16807ELm0ELm2147483647EEEEfRT_RKNS0_10param_typeE, .Lfunc_end115-_ZNSt25uniform_real_distributionIfEclISt26linear_congruential_engineImLm16807ELm0ELm2147483647EEEEfRT_RKNS0_10param_typeE
	.cfi_endproc
                                        # -- End function
	.section	.text._ZNSt8__detail8_AdaptorISt26linear_congruential_engineImLm16807ELm0ELm2147483647EEfEC2ERS2_,"axG",@progbits,_ZNSt8__detail8_AdaptorISt26linear_congruential_engineImLm16807ELm0ELm2147483647EEfEC2ERS2_,comdat
	.weak	_ZNSt8__detail8_AdaptorISt26linear_congruential_engineImLm16807ELm0ELm2147483647EEfEC2ERS2_ # -- Begin function _ZNSt8__detail8_AdaptorISt26linear_congruential_engineImLm16807ELm0ELm2147483647EEfEC2ERS2_
	.p2align	4, 0x90
	.type	_ZNSt8__detail8_AdaptorISt26linear_congruential_engineImLm16807ELm0ELm2147483647EEfEC2ERS2_,@function
_ZNSt8__detail8_AdaptorISt26linear_congruential_engineImLm16807ELm0ELm2147483647EEfEC2ERS2_: # @_ZNSt8__detail8_AdaptorISt26linear_congruential_engineImLm16807ELm0ELm2147483647EEfEC2ERS2_
	.cfi_startproc
# %bb.0:                                # %entry
	pushq	%rbp
	.cfi_def_cfa_offset 16
	.cfi_offset %rbp, -16
	movq	%rsp, %rbp
	.cfi_def_cfa_register %rbp
	movq	%rdi, -8(%rbp)
	movq	%rsi, -16(%rbp)
	movq	-8(%rbp), %rsi
	movq	-16(%rbp), %rdi
	movq	%rdi, (%rsi)
	popq	%rbp
	.cfi_def_cfa %rsp, 8
	retq
.Lfunc_end116:
	.size	_ZNSt8__detail8_AdaptorISt26linear_congruential_engineImLm16807ELm0ELm2147483647EEfEC2ERS2_, .Lfunc_end116-_ZNSt8__detail8_AdaptorISt26linear_congruential_engineImLm16807ELm0ELm2147483647EEfEC2ERS2_
	.cfi_endproc
                                        # -- End function
	.section	.text._ZNSt8__detail8_AdaptorISt26linear_congruential_engineImLm16807ELm0ELm2147483647EEfEclEv,"axG",@progbits,_ZNSt8__detail8_AdaptorISt26linear_congruential_engineImLm16807ELm0ELm2147483647EEfEclEv,comdat
	.weak	_ZNSt8__detail8_AdaptorISt26linear_congruential_engineImLm16807ELm0ELm2147483647EEfEclEv # -- Begin function _ZNSt8__detail8_AdaptorISt26linear_congruential_engineImLm16807ELm0ELm2147483647EEfEclEv
	.p2align	4, 0x90
	.type	_ZNSt8__detail8_AdaptorISt26linear_congruential_engineImLm16807ELm0ELm2147483647EEfEclEv,@function
_ZNSt8__detail8_AdaptorISt26linear_congruential_engineImLm16807ELm0ELm2147483647EEfEclEv: # @_ZNSt8__detail8_AdaptorISt26linear_congruential_engineImLm16807ELm0ELm2147483647EEfEclEv
	.cfi_startproc
# %bb.0:                                # %entry
	pushq	%rbp
	.cfi_def_cfa_offset 16
	.cfi_offset %rbp, -16
	movq	%rsp, %rbp
	.cfi_def_cfa_register %rbp
	subq	$16, %rsp
	movq	%rdi, -8(%rbp)
	movq	-8(%rbp), %rdi
	movq	(%rdi), %rdi
	callq	_ZSt18generate_canonicalIfLm24ESt26linear_congruential_engineImLm16807ELm0ELm2147483647EEET_RT1_
	addq	$16, %rsp
	popq	%rbp
	.cfi_def_cfa %rsp, 8
	retq
.Lfunc_end117:
	.size	_ZNSt8__detail8_AdaptorISt26linear_congruential_engineImLm16807ELm0ELm2147483647EEfEclEv, .Lfunc_end117-_ZNSt8__detail8_AdaptorISt26linear_congruential_engineImLm16807ELm0ELm2147483647EEfEclEv
	.cfi_endproc
                                        # -- End function
	.section	.text._ZNKSt25uniform_real_distributionIfE10param_type1bEv,"axG",@progbits,_ZNKSt25uniform_real_distributionIfE10param_type1bEv,comdat
	.weak	_ZNKSt25uniform_real_distributionIfE10param_type1bEv # -- Begin function _ZNKSt25uniform_real_distributionIfE10param_type1bEv
	.p2align	4, 0x90
	.type	_ZNKSt25uniform_real_distributionIfE10param_type1bEv,@function
_ZNKSt25uniform_real_distributionIfE10param_type1bEv: # @_ZNKSt25uniform_real_distributionIfE10param_type1bEv
	.cfi_startproc
# %bb.0:                                # %entry
	pushq	%rbp
	.cfi_def_cfa_offset 16
	.cfi_offset %rbp, -16
	movq	%rsp, %rbp
	.cfi_def_cfa_register %rbp
	movq	%rdi, -8(%rbp)
	movq	-8(%rbp), %rdi
	movss	4(%rdi), %xmm0          # xmm0 = mem[0],zero,zero,zero
	popq	%rbp
	.cfi_def_cfa %rsp, 8
	retq
.Lfunc_end118:
	.size	_ZNKSt25uniform_real_distributionIfE10param_type1bEv, .Lfunc_end118-_ZNKSt25uniform_real_distributionIfE10param_type1bEv
	.cfi_endproc
                                        # -- End function
	.section	.text._ZNKSt25uniform_real_distributionIfE10param_type1aEv,"axG",@progbits,_ZNKSt25uniform_real_distributionIfE10param_type1aEv,comdat
	.weak	_ZNKSt25uniform_real_distributionIfE10param_type1aEv # -- Begin function _ZNKSt25uniform_real_distributionIfE10param_type1aEv
	.p2align	4, 0x90
	.type	_ZNKSt25uniform_real_distributionIfE10param_type1aEv,@function
_ZNKSt25uniform_real_distributionIfE10param_type1aEv: # @_ZNKSt25uniform_real_distributionIfE10param_type1aEv
	.cfi_startproc
# %bb.0:                                # %entry
	pushq	%rbp
	.cfi_def_cfa_offset 16
	.cfi_offset %rbp, -16
	movq	%rsp, %rbp
	.cfi_def_cfa_register %rbp
	movq	%rdi, -8(%rbp)
	movq	-8(%rbp), %rdi
	movss	(%rdi), %xmm0           # xmm0 = mem[0],zero,zero,zero
	popq	%rbp
	.cfi_def_cfa %rsp, 8
	retq
.Lfunc_end119:
	.size	_ZNKSt25uniform_real_distributionIfE10param_type1aEv, .Lfunc_end119-_ZNKSt25uniform_real_distributionIfE10param_type1aEv
	.cfi_endproc
                                        # -- End function
	.section	.rodata.cst4,"aM",@progbits,4
	.p2align	2               # -- Begin function _ZSt18generate_canonicalIfLm24ESt26linear_congruential_engineImLm16807ELm0ELm2147483647EEET_RT1_
.LCPI120_0:
	.long	1065353216              # float 1
.LCPI120_2:
	.long	1073741824              # float 2
.LCPI120_3:
	.long	1593835520              # float 9.22337203E+18
	.section	.rodata.cst8,"aM",@progbits,8
	.p2align	3
.LCPI120_1:
	.quad	1602224128              # 0x5f800000
	.section	.text._ZSt18generate_canonicalIfLm24ESt26linear_congruential_engineImLm16807ELm0ELm2147483647EEET_RT1_,"axG",@progbits,_ZSt18generate_canonicalIfLm24ESt26linear_congruential_engineImLm16807ELm0ELm2147483647EEET_RT1_,comdat
	.weak	_ZSt18generate_canonicalIfLm24ESt26linear_congruential_engineImLm16807ELm0ELm2147483647EEET_RT1_
	.p2align	4, 0x90
	.type	_ZSt18generate_canonicalIfLm24ESt26linear_congruential_engineImLm16807ELm0ELm2147483647EEET_RT1_,@function
_ZSt18generate_canonicalIfLm24ESt26linear_congruential_engineImLm16807ELm0ELm2147483647EEET_RT1_: # @_ZSt18generate_canonicalIfLm24ESt26linear_congruential_engineImLm16807ELm0ELm2147483647EEET_RT1_
	.cfi_startproc
# %bb.0:                                # %entry
	pushq	%rbp
	.cfi_def_cfa_offset 16
	.cfi_offset %rbp, -16
	movq	%rsp, %rbp
	.cfi_def_cfa_register %rbp
	subq	$208, %rsp
	movq	%rdi, -8(%rbp)
	movq	$24, -24(%rbp)
	movq	$24, -32(%rbp)
	leaq	-24(%rbp), %rdi
	leaq	-32(%rbp), %rsi
	callq	_ZSt3minImERKT_S2_S2_
	movq	(%rax), %rax
	movq	%rax, -16(%rbp)
	callq	_ZNSt26linear_congruential_engineImLm16807ELm0ELm2147483647EE3maxEv
	movq	%rax, -120(%rbp)
	testq	%rax, %rax
	setns	%cl
	movzbl	%cl, %edx
	movl	%edx, %eax
	flds	.LCPI120_1(,%rax,4)
	fildll	-120(%rbp)
	faddp	%st(1)
	fstpt	-156(%rbp)              # 10-byte Folded Spill
	callq	_ZNSt26linear_congruential_engineImLm16807ELm0ELm2147483647EE3minEv
	movq	%rax, -112(%rbp)
	testq	%rax, %rax
	setns	%cl
	movzbl	%cl, %edx
	movl	%edx, %eax
	flds	.LCPI120_1(,%rax,4)
	fildll	-112(%rbp)
	faddp	%st(1)
	fldt	-156(%rbp)              # 10-byte Folded Reload
	fsubp	%st(1)
	fld1
	faddp	%st(1)
	fstpt	-48(%rbp)
	fldt	-48(%rbp)
	movq	%rsp, %rax
	fstpt	(%rax)
	callq	_ZSt3loge
	movq	%rsp, %rax
	flds	.LCPI120_2(%rip)
	fstpt	(%rax)
	fstpt	-168(%rbp)              # 10-byte Folded Spill
	callq	_ZSt3loge
	fldt	-168(%rbp)              # 10-byte Folded Reload
	fdivp	%st(1)
	flds	.LCPI120_3(%rip)
	fld	%st(1)
	fsub	%st(1)
	fnstcw	-142(%rbp)
	movw	-142(%rbp), %r8w
	movw	$3199, -142(%rbp)       # imm = 0xC7F
	fldcw	-142(%rbp)
	movw	%r8w, -142(%rbp)
	fistpll	-128(%rbp)
	fldcw	-142(%rbp)
	fnstcw	-144(%rbp)
	movw	-144(%rbp), %r8w
	movw	$3199, -144(%rbp)       # imm = 0xC7F
	fldcw	-144(%rbp)
	movw	%r8w, -144(%rbp)
	fld	%st(1)
	fistpll	-136(%rbp)
	fldcw	-144(%rbp)
	movq	-128(%rbp), %rax
	movabsq	$-9223372036854775808, %rsi # imm = 0x8000000000000000
	xorq	%rsi, %rax
	movq	-136(%rbp), %rsi
	fxch	%st(1)
	fucompi	%st(1)
	fstp	%st(0)
	cmovbq	%rsi, %rax
	movq	%rax, -56(%rbp)
	movq	$1, -72(%rbp)
	movq	-56(%rbp), %rax
	addq	$24, %rax
	subq	$1, %rax
	xorl	%edx, %edx
                                        # kill: def $rdx killed $edx
	divq	-56(%rbp)
	movq	%rax, -80(%rbp)
	leaq	-72(%rbp), %rdi
	leaq	-80(%rbp), %rsi
	callq	_ZSt3maxImERKT_S2_S2_
	movss	.LCPI120_0(%rip), %xmm0 # xmm0 = mem[0],zero,zero,zero
	movq	(%rax), %rax
	movq	%rax, -64(%rbp)
	xorps	%xmm1, %xmm1
	movss	%xmm1, -88(%rbp)
	movss	%xmm0, -92(%rbp)
	movq	-64(%rbp), %rax
	movq	%rax, -104(%rbp)
.LBB120_1:                              # %for.cond
                                        # =>This Inner Loop Header: Depth=1
	cmpq	$0, -104(%rbp)
	je	.LBB120_4
# %bb.2:                                # %for.body
                                        #   in Loop: Header=BB120_1 Depth=1
	movq	-8(%rbp), %rdi
	callq	_ZNSt26linear_congruential_engineImLm16807ELm0ELm2147483647EEclEv
	movq	%rax, -176(%rbp)        # 8-byte Spill
	callq	_ZNSt26linear_congruential_engineImLm16807ELm0ELm2147483647EE3minEv
	movq	-176(%rbp), %rdi        # 8-byte Reload
	subq	%rax, %rdi
	movq	%rdi, %rax
	shrq	%rax
	movl	%edi, %ecx
	andl	$1, %ecx
	movl	%ecx, %edx
	orq	%rax, %rdx
	cvtsi2ssq	%rdx, %xmm0
	addss	%xmm0, %xmm0
	cvtsi2ssq	%rdi, %xmm1
	testq	%rdi, %rdi
	movss	%xmm1, -180(%rbp)       # 4-byte Spill
	movss	%xmm0, -184(%rbp)       # 4-byte Spill
	js	.LBB120_8
# %bb.7:                                # %for.body
                                        #   in Loop: Header=BB120_1 Depth=1
	movss	-180(%rbp), %xmm0       # 4-byte Reload
                                        # xmm0 = mem[0],zero,zero,zero
	movss	%xmm0, -184(%rbp)       # 4-byte Spill
.LBB120_8:                              # %for.body
                                        #   in Loop: Header=BB120_1 Depth=1
	movss	-184(%rbp), %xmm0       # 4-byte Reload
                                        # xmm0 = mem[0],zero,zero,zero
	movss	-92(%rbp), %xmm1        # xmm1 = mem[0],zero,zero,zero
	mulss	%xmm1, %xmm0
	movss	-88(%rbp), %xmm1        # xmm1 = mem[0],zero,zero,zero
	addss	%xmm0, %xmm1
	movss	%xmm1, -88(%rbp)
	fldt	-48(%rbp)
	flds	-92(%rbp)
	fmulp	%st(1)
	fstps	-140(%rbp)
	movss	-140(%rbp), %xmm0       # xmm0 = mem[0],zero,zero,zero
	movss	%xmm0, -92(%rbp)
# %bb.3:                                # %for.inc
                                        #   in Loop: Header=BB120_1 Depth=1
	movq	-104(%rbp), %rax
	addq	$-1, %rax
	movq	%rax, -104(%rbp)
	jmp	.LBB120_1
.LBB120_4:                              # %for.end
	movss	.LCPI120_0(%rip), %xmm0 # xmm0 = mem[0],zero,zero,zero
	movss	-88(%rbp), %xmm1        # xmm1 = mem[0],zero,zero,zero
	divss	-92(%rbp), %xmm1
	movss	%xmm1, -84(%rbp)
	movss	-84(%rbp), %xmm1        # xmm1 = mem[0],zero,zero,zero
	ucomiss	%xmm0, %xmm1
	jb	.LBB120_6
# %bb.5:                                # %if.then
	movss	.LCPI120_0(%rip), %xmm0 # xmm0 = mem[0],zero,zero,zero
	xorps	%xmm1, %xmm1
	callq	_ZSt9nextafterff
	movss	%xmm0, -84(%rbp)
.LBB120_6:                              # %if.end
	movss	-84(%rbp), %xmm0        # xmm0 = mem[0],zero,zero,zero
	addq	$208, %rsp
	popq	%rbp
	.cfi_def_cfa %rsp, 8
	retq
.Lfunc_end120:
	.size	_ZSt18generate_canonicalIfLm24ESt26linear_congruential_engineImLm16807ELm0ELm2147483647EEET_RT1_, .Lfunc_end120-_ZSt18generate_canonicalIfLm24ESt26linear_congruential_engineImLm16807ELm0ELm2147483647EEET_RT1_
	.cfi_endproc
                                        # -- End function
	.section	.text._ZSt3minImERKT_S2_S2_,"axG",@progbits,_ZSt3minImERKT_S2_S2_,comdat
	.weak	_ZSt3minImERKT_S2_S2_   # -- Begin function _ZSt3minImERKT_S2_S2_
	.p2align	4, 0x90
	.type	_ZSt3minImERKT_S2_S2_,@function
_ZSt3minImERKT_S2_S2_:                  # @_ZSt3minImERKT_S2_S2_
	.cfi_startproc
# %bb.0:                                # %entry
	pushq	%rbp
	.cfi_def_cfa_offset 16
	.cfi_offset %rbp, -16
	movq	%rsp, %rbp
	.cfi_def_cfa_register %rbp
	movq	%rdi, -16(%rbp)
	movq	%rsi, -24(%rbp)
	movq	-24(%rbp), %rsi
	movq	(%rsi), %rsi
	movq	-16(%rbp), %rdi
	cmpq	(%rdi), %rsi
	jae	.LBB121_2
# %bb.1:                                # %if.then
	movq	-24(%rbp), %rax
	movq	%rax, -8(%rbp)
	jmp	.LBB121_3
.LBB121_2:                              # %if.end
	movq	-16(%rbp), %rax
	movq	%rax, -8(%rbp)
.LBB121_3:                              # %return
	movq	-8(%rbp), %rax
	popq	%rbp
	.cfi_def_cfa %rsp, 8
	retq
.Lfunc_end121:
	.size	_ZSt3minImERKT_S2_S2_, .Lfunc_end121-_ZSt3minImERKT_S2_S2_
	.cfi_endproc
                                        # -- End function
	.section	.text._ZNSt26linear_congruential_engineImLm16807ELm0ELm2147483647EE3maxEv,"axG",@progbits,_ZNSt26linear_congruential_engineImLm16807ELm0ELm2147483647EE3maxEv,comdat
	.weak	_ZNSt26linear_congruential_engineImLm16807ELm0ELm2147483647EE3maxEv # -- Begin function _ZNSt26linear_congruential_engineImLm16807ELm0ELm2147483647EE3maxEv
	.p2align	4, 0x90
	.type	_ZNSt26linear_congruential_engineImLm16807ELm0ELm2147483647EE3maxEv,@function
_ZNSt26linear_congruential_engineImLm16807ELm0ELm2147483647EE3maxEv: # @_ZNSt26linear_congruential_engineImLm16807ELm0ELm2147483647EE3maxEv
	.cfi_startproc
# %bb.0:                                # %entry
	pushq	%rbp
	.cfi_def_cfa_offset 16
	.cfi_offset %rbp, -16
	movq	%rsp, %rbp
	.cfi_def_cfa_register %rbp
	movl	$2147483646, %eax       # imm = 0x7FFFFFFE
                                        # kill: def $rax killed $eax
	popq	%rbp
	.cfi_def_cfa %rsp, 8
	retq
.Lfunc_end122:
	.size	_ZNSt26linear_congruential_engineImLm16807ELm0ELm2147483647EE3maxEv, .Lfunc_end122-_ZNSt26linear_congruential_engineImLm16807ELm0ELm2147483647EE3maxEv
	.cfi_endproc
                                        # -- End function
	.section	.text._ZNSt26linear_congruential_engineImLm16807ELm0ELm2147483647EE3minEv,"axG",@progbits,_ZNSt26linear_congruential_engineImLm16807ELm0ELm2147483647EE3minEv,comdat
	.weak	_ZNSt26linear_congruential_engineImLm16807ELm0ELm2147483647EE3minEv # -- Begin function _ZNSt26linear_congruential_engineImLm16807ELm0ELm2147483647EE3minEv
	.p2align	4, 0x90
	.type	_ZNSt26linear_congruential_engineImLm16807ELm0ELm2147483647EE3minEv,@function
_ZNSt26linear_congruential_engineImLm16807ELm0ELm2147483647EE3minEv: # @_ZNSt26linear_congruential_engineImLm16807ELm0ELm2147483647EE3minEv
	.cfi_startproc
# %bb.0:                                # %entry
	pushq	%rbp
	.cfi_def_cfa_offset 16
	.cfi_offset %rbp, -16
	movq	%rsp, %rbp
	.cfi_def_cfa_register %rbp
	movl	$1, %eax
                                        # kill: def $rax killed $eax
	popq	%rbp
	.cfi_def_cfa %rsp, 8
	retq
.Lfunc_end123:
	.size	_ZNSt26linear_congruential_engineImLm16807ELm0ELm2147483647EE3minEv, .Lfunc_end123-_ZNSt26linear_congruential_engineImLm16807ELm0ELm2147483647EE3minEv
	.cfi_endproc
                                        # -- End function
	.section	.text._ZSt3loge,"axG",@progbits,_ZSt3loge,comdat
	.weak	_ZSt3loge               # -- Begin function _ZSt3loge
	.p2align	4, 0x90
	.type	_ZSt3loge,@function
_ZSt3loge:                              # @_ZSt3loge
	.cfi_startproc
# %bb.0:                                # %entry
	pushq	%rbp
	.cfi_def_cfa_offset 16
	.cfi_offset %rbp, -16
	movq	%rsp, %rbp
	.cfi_def_cfa_register %rbp
	subq	$48, %rsp
	fldt	16(%rbp)
	fstpt	-16(%rbp)
	fldt	-16(%rbp)
	movq	%rsp, %rax
	fstpt	(%rax)
	callq	logl
	fld	%st(0)
	fstpt	-28(%rbp)               # 10-byte Folded Spill
	addq	$48, %rsp
	popq	%rbp
	.cfi_def_cfa %rsp, 8
	retq
.Lfunc_end124:
	.size	_ZSt3loge, .Lfunc_end124-_ZSt3loge
	.cfi_endproc
                                        # -- End function
	.section	.text._ZSt3maxImERKT_S2_S2_,"axG",@progbits,_ZSt3maxImERKT_S2_S2_,comdat
	.weak	_ZSt3maxImERKT_S2_S2_   # -- Begin function _ZSt3maxImERKT_S2_S2_
	.p2align	4, 0x90
	.type	_ZSt3maxImERKT_S2_S2_,@function
_ZSt3maxImERKT_S2_S2_:                  # @_ZSt3maxImERKT_S2_S2_
	.cfi_startproc
# %bb.0:                                # %entry
	pushq	%rbp
	.cfi_def_cfa_offset 16
	.cfi_offset %rbp, -16
	movq	%rsp, %rbp
	.cfi_def_cfa_register %rbp
	movq	%rdi, -16(%rbp)
	movq	%rsi, -24(%rbp)
	movq	-16(%rbp), %rsi
	movq	(%rsi), %rsi
	movq	-24(%rbp), %rdi
	cmpq	(%rdi), %rsi
	jae	.LBB125_2
# %bb.1:                                # %if.then
	movq	-24(%rbp), %rax
	movq	%rax, -8(%rbp)
	jmp	.LBB125_3
.LBB125_2:                              # %if.end
	movq	-16(%rbp), %rax
	movq	%rax, -8(%rbp)
.LBB125_3:                              # %return
	movq	-8(%rbp), %rax
	popq	%rbp
	.cfi_def_cfa %rsp, 8
	retq
.Lfunc_end125:
	.size	_ZSt3maxImERKT_S2_S2_, .Lfunc_end125-_ZSt3maxImERKT_S2_S2_
	.cfi_endproc
                                        # -- End function
	.section	.text._ZNSt26linear_congruential_engineImLm16807ELm0ELm2147483647EEclEv,"axG",@progbits,_ZNSt26linear_congruential_engineImLm16807ELm0ELm2147483647EEclEv,comdat
	.weak	_ZNSt26linear_congruential_engineImLm16807ELm0ELm2147483647EEclEv # -- Begin function _ZNSt26linear_congruential_engineImLm16807ELm0ELm2147483647EEclEv
	.p2align	4, 0x90
	.type	_ZNSt26linear_congruential_engineImLm16807ELm0ELm2147483647EEclEv,@function
_ZNSt26linear_congruential_engineImLm16807ELm0ELm2147483647EEclEv: # @_ZNSt26linear_congruential_engineImLm16807ELm0ELm2147483647EEclEv
	.cfi_startproc
# %bb.0:                                # %entry
	pushq	%rbp
	.cfi_def_cfa_offset 16
	.cfi_offset %rbp, -16
	movq	%rsp, %rbp
	.cfi_def_cfa_register %rbp
	subq	$16, %rsp
	movq	%rdi, -8(%rbp)
	movq	-8(%rbp), %rdi
	movq	(%rdi), %rax
	movq	%rdi, -16(%rbp)         # 8-byte Spill
	movq	%rax, %rdi
	callq	_ZNSt8__detail5__modImLm2147483647ELm16807ELm0EEET_S1_
	movq	-16(%rbp), %rdi         # 8-byte Reload
	movq	%rax, (%rdi)
	movq	(%rdi), %rax
	addq	$16, %rsp
	popq	%rbp
	.cfi_def_cfa %rsp, 8
	retq
.Lfunc_end126:
	.size	_ZNSt26linear_congruential_engineImLm16807ELm0ELm2147483647EEclEv, .Lfunc_end126-_ZNSt26linear_congruential_engineImLm16807ELm0ELm2147483647EEclEv
	.cfi_endproc
                                        # -- End function
	.section	.text._ZSt9nextafterff,"axG",@progbits,_ZSt9nextafterff,comdat
	.weak	_ZSt9nextafterff        # -- Begin function _ZSt9nextafterff
	.p2align	4, 0x90
	.type	_ZSt9nextafterff,@function
_ZSt9nextafterff:                       # @_ZSt9nextafterff
	.cfi_startproc
# %bb.0:                                # %entry
	pushq	%rbp
	.cfi_def_cfa_offset 16
	.cfi_offset %rbp, -16
	movq	%rsp, %rbp
	.cfi_def_cfa_register %rbp
	subq	$16, %rsp
	movss	%xmm0, -4(%rbp)
	movss	%xmm1, -8(%rbp)
	movss	-4(%rbp), %xmm0         # xmm0 = mem[0],zero,zero,zero
	movss	-8(%rbp), %xmm1         # xmm1 = mem[0],zero,zero,zero
	callq	nextafterf
	addq	$16, %rsp
	popq	%rbp
	.cfi_def_cfa %rsp, 8
	retq
.Lfunc_end127:
	.size	_ZSt9nextafterff, .Lfunc_end127-_ZSt9nextafterff
	.cfi_endproc
                                        # -- End function
	.section	.text._ZNSt8__detail5__modImLm2147483647ELm16807ELm0EEET_S1_,"axG",@progbits,_ZNSt8__detail5__modImLm2147483647ELm16807ELm0EEET_S1_,comdat
	.weak	_ZNSt8__detail5__modImLm2147483647ELm16807ELm0EEET_S1_ # -- Begin function _ZNSt8__detail5__modImLm2147483647ELm16807ELm0EEET_S1_
	.p2align	4, 0x90
	.type	_ZNSt8__detail5__modImLm2147483647ELm16807ELm0EEET_S1_,@function
_ZNSt8__detail5__modImLm2147483647ELm16807ELm0EEET_S1_: # @_ZNSt8__detail5__modImLm2147483647ELm16807ELm0EEET_S1_
	.cfi_startproc
# %bb.0:                                # %entry
	pushq	%rbp
	.cfi_def_cfa_offset 16
	.cfi_offset %rbp, -16
	movq	%rsp, %rbp
	.cfi_def_cfa_register %rbp
	subq	$16, %rsp
	movq	%rdi, -8(%rbp)
	movq	-8(%rbp), %rdi
	callq	_ZNSt8__detail4_ModImLm2147483647ELm16807ELm0ELb1ELb1EE6__calcEm
	addq	$16, %rsp
	popq	%rbp
	.cfi_def_cfa %rsp, 8
	retq
.Lfunc_end128:
	.size	_ZNSt8__detail5__modImLm2147483647ELm16807ELm0EEET_S1_, .Lfunc_end128-_ZNSt8__detail5__modImLm2147483647ELm16807ELm0EEET_S1_
	.cfi_endproc
                                        # -- End function
	.section	.text._ZNSt8__detail4_ModImLm2147483647ELm16807ELm0ELb1ELb1EE6__calcEm,"axG",@progbits,_ZNSt8__detail4_ModImLm2147483647ELm16807ELm0ELb1ELb1EE6__calcEm,comdat
	.weak	_ZNSt8__detail4_ModImLm2147483647ELm16807ELm0ELb1ELb1EE6__calcEm # -- Begin function _ZNSt8__detail4_ModImLm2147483647ELm16807ELm0ELb1ELb1EE6__calcEm
	.p2align	4, 0x90
	.type	_ZNSt8__detail4_ModImLm2147483647ELm16807ELm0ELb1ELb1EE6__calcEm,@function
_ZNSt8__detail4_ModImLm2147483647ELm16807ELm0ELb1ELb1EE6__calcEm: # @_ZNSt8__detail4_ModImLm2147483647ELm16807ELm0ELb1ELb1EE6__calcEm
	.cfi_startproc
# %bb.0:                                # %entry
	pushq	%rbp
	.cfi_def_cfa_offset 16
	.cfi_offset %rbp, -16
	movq	%rsp, %rbp
	.cfi_def_cfa_register %rbp
	movl	$2147483647, %eax       # imm = 0x7FFFFFFF
	movl	%eax, %ecx
	movq	%rdi, -8(%rbp)
	imulq	$16807, -8(%rbp), %rdi  # imm = 0x41A7
	addq	$0, %rdi
	movq	%rdi, -16(%rbp)
	movq	-16(%rbp), %rax
	xorl	%edx, %edx
                                        # kill: def $rdx killed $edx
	divq	%rcx
	movq	%rdx, -16(%rbp)
	movq	-16(%rbp), %rcx
	movq	%rcx, %rax
	popq	%rbp
	.cfi_def_cfa %rsp, 8
	retq
.Lfunc_end129:
	.size	_ZNSt8__detail4_ModImLm2147483647ELm16807ELm0ELb1ELb1EE6__calcEm, .Lfunc_end129-_ZNSt8__detail4_ModImLm2147483647ELm16807ELm0ELb1ELb1EE6__calcEm
	.cfi_endproc
                                        # -- End function
	.section	.text._ZNSt6vectorIfSaIfEE5beginEv,"axG",@progbits,_ZNSt6vectorIfSaIfEE5beginEv,comdat
	.weak	_ZNSt6vectorIfSaIfEE5beginEv # -- Begin function _ZNSt6vectorIfSaIfEE5beginEv
	.p2align	4, 0x90
	.type	_ZNSt6vectorIfSaIfEE5beginEv,@function
_ZNSt6vectorIfSaIfEE5beginEv:           # @_ZNSt6vectorIfSaIfEE5beginEv
	.cfi_startproc
# %bb.0:                                # %entry
	pushq	%rbp
	.cfi_def_cfa_offset 16
	.cfi_offset %rbp, -16
	movq	%rsp, %rbp
	.cfi_def_cfa_register %rbp
	subq	$32, %rsp
	movq	%rdi, -16(%rbp)
	movq	-16(%rbp), %rdi
	leaq	-8(%rbp), %rax
	movq	%rdi, -24(%rbp)         # 8-byte Spill
	movq	%rax, %rdi
	movq	-24(%rbp), %rsi         # 8-byte Reload
	callq	_ZN9__gnu_cxx17__normal_iteratorIPfSt6vectorIfSaIfEEEC2ERKS1_
	movq	-8(%rbp), %rax
	addq	$32, %rsp
	popq	%rbp
	.cfi_def_cfa %rsp, 8
	retq
.Lfunc_end130:
	.size	_ZNSt6vectorIfSaIfEE5beginEv, .Lfunc_end130-_ZNSt6vectorIfSaIfEE5beginEv
	.cfi_endproc
                                        # -- End function
	.section	.text._ZNSt6vectorIfSaIfEE3endEv,"axG",@progbits,_ZNSt6vectorIfSaIfEE3endEv,comdat
	.weak	_ZNSt6vectorIfSaIfEE3endEv # -- Begin function _ZNSt6vectorIfSaIfEE3endEv
	.p2align	4, 0x90
	.type	_ZNSt6vectorIfSaIfEE3endEv,@function
_ZNSt6vectorIfSaIfEE3endEv:             # @_ZNSt6vectorIfSaIfEE3endEv
	.cfi_startproc
# %bb.0:                                # %entry
	pushq	%rbp
	.cfi_def_cfa_offset 16
	.cfi_offset %rbp, -16
	movq	%rsp, %rbp
	.cfi_def_cfa_register %rbp
	subq	$32, %rsp
	movq	%rdi, -16(%rbp)
	movq	-16(%rbp), %rdi
	addq	$8, %rdi
	leaq	-8(%rbp), %rax
	movq	%rdi, -24(%rbp)         # 8-byte Spill
	movq	%rax, %rdi
	movq	-24(%rbp), %rsi         # 8-byte Reload
	callq	_ZN9__gnu_cxx17__normal_iteratorIPfSt6vectorIfSaIfEEEC2ERKS1_
	movq	-8(%rbp), %rax
	addq	$32, %rsp
	popq	%rbp
	.cfi_def_cfa %rsp, 8
	retq
.Lfunc_end131:
	.size	_ZNSt6vectorIfSaIfEE3endEv, .Lfunc_end131-_ZNSt6vectorIfSaIfEE3endEv
	.cfi_endproc
                                        # -- End function
	.section	.text._ZN9__gnu_cxxneIPfSt6vectorIfSaIfEEEEbRKNS_17__normal_iteratorIT_T0_EESA_,"axG",@progbits,_ZN9__gnu_cxxneIPfSt6vectorIfSaIfEEEEbRKNS_17__normal_iteratorIT_T0_EESA_,comdat
	.weak	_ZN9__gnu_cxxneIPfSt6vectorIfSaIfEEEEbRKNS_17__normal_iteratorIT_T0_EESA_ # -- Begin function _ZN9__gnu_cxxneIPfSt6vectorIfSaIfEEEEbRKNS_17__normal_iteratorIT_T0_EESA_
	.p2align	4, 0x90
	.type	_ZN9__gnu_cxxneIPfSt6vectorIfSaIfEEEEbRKNS_17__normal_iteratorIT_T0_EESA_,@function
_ZN9__gnu_cxxneIPfSt6vectorIfSaIfEEEEbRKNS_17__normal_iteratorIT_T0_EESA_: # @_ZN9__gnu_cxxneIPfSt6vectorIfSaIfEEEEbRKNS_17__normal_iteratorIT_T0_EESA_
	.cfi_startproc
# %bb.0:                                # %entry
	pushq	%rbp
	.cfi_def_cfa_offset 16
	.cfi_offset %rbp, -16
	movq	%rsp, %rbp
	.cfi_def_cfa_register %rbp
	subq	$32, %rsp
	movq	%rdi, -8(%rbp)
	movq	%rsi, -16(%rbp)
	movq	-8(%rbp), %rdi
	callq	_ZNK9__gnu_cxx17__normal_iteratorIPfSt6vectorIfSaIfEEE4baseEv
	movq	(%rax), %rax
	movq	-16(%rbp), %rdi
	movq	%rax, -24(%rbp)         # 8-byte Spill
	callq	_ZNK9__gnu_cxx17__normal_iteratorIPfSt6vectorIfSaIfEEE4baseEv
	movq	-24(%rbp), %rsi         # 8-byte Reload
	cmpq	(%rax), %rsi
	setne	%cl
	andb	$1, %cl
	movzbl	%cl, %eax
	addq	$32, %rsp
	popq	%rbp
	.cfi_def_cfa %rsp, 8
	retq
.Lfunc_end132:
	.size	_ZN9__gnu_cxxneIPfSt6vectorIfSaIfEEEEbRKNS_17__normal_iteratorIT_T0_EESA_, .Lfunc_end132-_ZN9__gnu_cxxneIPfSt6vectorIfSaIfEEEEbRKNS_17__normal_iteratorIT_T0_EESA_
	.cfi_endproc
                                        # -- End function
	.section	.text._ZNK9__gnu_cxx17__normal_iteratorIPfSt6vectorIfSaIfEEEdeEv,"axG",@progbits,_ZNK9__gnu_cxx17__normal_iteratorIPfSt6vectorIfSaIfEEEdeEv,comdat
	.weak	_ZNK9__gnu_cxx17__normal_iteratorIPfSt6vectorIfSaIfEEEdeEv # -- Begin function _ZNK9__gnu_cxx17__normal_iteratorIPfSt6vectorIfSaIfEEEdeEv
	.p2align	4, 0x90
	.type	_ZNK9__gnu_cxx17__normal_iteratorIPfSt6vectorIfSaIfEEEdeEv,@function
_ZNK9__gnu_cxx17__normal_iteratorIPfSt6vectorIfSaIfEEEdeEv: # @_ZNK9__gnu_cxx17__normal_iteratorIPfSt6vectorIfSaIfEEEdeEv
	.cfi_startproc
# %bb.0:                                # %entry
	pushq	%rbp
	.cfi_def_cfa_offset 16
	.cfi_offset %rbp, -16
	movq	%rsp, %rbp
	.cfi_def_cfa_register %rbp
	movq	%rdi, -8(%rbp)
	movq	-8(%rbp), %rdi
	movq	(%rdi), %rax
	popq	%rbp
	.cfi_def_cfa %rsp, 8
	retq
.Lfunc_end133:
	.size	_ZNK9__gnu_cxx17__normal_iteratorIPfSt6vectorIfSaIfEEEdeEv, .Lfunc_end133-_ZNK9__gnu_cxx17__normal_iteratorIPfSt6vectorIfSaIfEEEdeEv
	.cfi_endproc
                                        # -- End function
	.section	.text._ZN15uniform_randgenIfEdeEv,"axG",@progbits,_ZN15uniform_randgenIfEdeEv,comdat
	.weak	_ZN15uniform_randgenIfEdeEv # -- Begin function _ZN15uniform_randgenIfEdeEv
	.p2align	4, 0x90
	.type	_ZN15uniform_randgenIfEdeEv,@function
_ZN15uniform_randgenIfEdeEv:            # @_ZN15uniform_randgenIfEdeEv
	.cfi_startproc
# %bb.0:                                # %entry
	pushq	%rbp
	.cfi_def_cfa_offset 16
	.cfi_offset %rbp, -16
	movq	%rsp, %rbp
	.cfi_def_cfa_register %rbp
	movq	%rdi, -8(%rbp)
	movq	-8(%rbp), %rdi
	movss	16(%rdi), %xmm0         # xmm0 = mem[0],zero,zero,zero
	popq	%rbp
	.cfi_def_cfa %rsp, 8
	retq
.Lfunc_end134:
	.size	_ZN15uniform_randgenIfEdeEv, .Lfunc_end134-_ZN15uniform_randgenIfEdeEv
	.cfi_endproc
                                        # -- End function
	.section	.text._ZN15uniform_randgenIfEppEv,"axG",@progbits,_ZN15uniform_randgenIfEppEv,comdat
	.weak	_ZN15uniform_randgenIfEppEv # -- Begin function _ZN15uniform_randgenIfEppEv
	.p2align	4, 0x90
	.type	_ZN15uniform_randgenIfEppEv,@function
_ZN15uniform_randgenIfEppEv:            # @_ZN15uniform_randgenIfEppEv
	.cfi_startproc
# %bb.0:                                # %entry
	pushq	%rbp
	.cfi_def_cfa_offset 16
	.cfi_offset %rbp, -16
	movq	%rsp, %rbp
	.cfi_def_cfa_register %rbp
	subq	$16, %rsp
	movq	%rdi, -8(%rbp)
	movq	-8(%rbp), %rdi
	movq	%rdi, %rax
	addq	$8, %rax
	movq	%rdi, -16(%rbp)         # 8-byte Spill
	movq	%rax, %rdi
	movq	-16(%rbp), %rsi         # 8-byte Reload
	callq	_ZNSt25uniform_real_distributionIfEclISt26linear_congruential_engineImLm16807ELm0ELm2147483647EEEEfRT_
	movq	-16(%rbp), %rax         # 8-byte Reload
	movss	%xmm0, 16(%rax)
	addq	$16, %rsp
	popq	%rbp
	.cfi_def_cfa %rsp, 8
	retq
.Lfunc_end135:
	.size	_ZN15uniform_randgenIfEppEv, .Lfunc_end135-_ZN15uniform_randgenIfEppEv
	.cfi_endproc
                                        # -- End function
	.section	.text._ZN9__gnu_cxx17__normal_iteratorIPfSt6vectorIfSaIfEEEppEv,"axG",@progbits,_ZN9__gnu_cxx17__normal_iteratorIPfSt6vectorIfSaIfEEEppEv,comdat
	.weak	_ZN9__gnu_cxx17__normal_iteratorIPfSt6vectorIfSaIfEEEppEv # -- Begin function _ZN9__gnu_cxx17__normal_iteratorIPfSt6vectorIfSaIfEEEppEv
	.p2align	4, 0x90
	.type	_ZN9__gnu_cxx17__normal_iteratorIPfSt6vectorIfSaIfEEEppEv,@function
_ZN9__gnu_cxx17__normal_iteratorIPfSt6vectorIfSaIfEEEppEv: # @_ZN9__gnu_cxx17__normal_iteratorIPfSt6vectorIfSaIfEEEppEv
	.cfi_startproc
# %bb.0:                                # %entry
	pushq	%rbp
	.cfi_def_cfa_offset 16
	.cfi_offset %rbp, -16
	movq	%rsp, %rbp
	.cfi_def_cfa_register %rbp
	movq	%rdi, -8(%rbp)
	movq	-8(%rbp), %rdi
	movq	(%rdi), %rax
	addq	$4, %rax
	movq	%rax, (%rdi)
	movq	%rdi, %rax
	popq	%rbp
	.cfi_def_cfa %rsp, 8
	retq
.Lfunc_end136:
	.size	_ZN9__gnu_cxx17__normal_iteratorIPfSt6vectorIfSaIfEEEppEv, .Lfunc_end136-_ZN9__gnu_cxx17__normal_iteratorIPfSt6vectorIfSaIfEEEppEv
	.cfi_endproc
                                        # -- End function
	.section	.text._ZNKSt6vectorIiSaIiEE4dataEv,"axG",@progbits,_ZNKSt6vectorIiSaIiEE4dataEv,comdat
	.weak	_ZNKSt6vectorIiSaIiEE4dataEv # -- Begin function _ZNKSt6vectorIiSaIiEE4dataEv
	.p2align	4, 0x90
	.type	_ZNKSt6vectorIiSaIiEE4dataEv,@function
_ZNKSt6vectorIiSaIiEE4dataEv:           # @_ZNKSt6vectorIiSaIiEE4dataEv
	.cfi_startproc
# %bb.0:                                # %entry
	pushq	%rbp
	.cfi_def_cfa_offset 16
	.cfi_offset %rbp, -16
	movq	%rsp, %rbp
	.cfi_def_cfa_register %rbp
	subq	$16, %rsp
	movq	%rdi, -8(%rbp)
	movq	-8(%rbp), %rdi
	movq	(%rdi), %rsi
	callq	_ZNKSt6vectorIiSaIiEE11_M_data_ptrIiEEPT_S4_
	addq	$16, %rsp
	popq	%rbp
	.cfi_def_cfa %rsp, 8
	retq
.Lfunc_end137:
	.size	_ZNKSt6vectorIiSaIiEE4dataEv, .Lfunc_end137-_ZNKSt6vectorIiSaIiEE4dataEv
	.cfi_endproc
                                        # -- End function
	.section	.text._ZNKSt6vectorIiSaIiEE4sizeEv,"axG",@progbits,_ZNKSt6vectorIiSaIiEE4sizeEv,comdat
	.weak	_ZNKSt6vectorIiSaIiEE4sizeEv # -- Begin function _ZNKSt6vectorIiSaIiEE4sizeEv
	.p2align	4, 0x90
	.type	_ZNKSt6vectorIiSaIiEE4sizeEv,@function
_ZNKSt6vectorIiSaIiEE4sizeEv:           # @_ZNKSt6vectorIiSaIiEE4sizeEv
	.cfi_startproc
# %bb.0:                                # %entry
	pushq	%rbp
	.cfi_def_cfa_offset 16
	.cfi_offset %rbp, -16
	movq	%rsp, %rbp
	.cfi_def_cfa_register %rbp
	movq	%rdi, -8(%rbp)
	movq	-8(%rbp), %rdi
	movq	8(%rdi), %rax
	movq	(%rdi), %rdi
	subq	%rdi, %rax
	sarq	$2, %rax
	popq	%rbp
	.cfi_def_cfa %rsp, 8
	retq
.Lfunc_end138:
	.size	_ZNKSt6vectorIiSaIiEE4sizeEv, .Lfunc_end138-_ZNKSt6vectorIiSaIiEE4sizeEv
	.cfi_endproc
                                        # -- End function
	.section	.text._ZN6TensorIfEC2EPKim,"axG",@progbits,_ZN6TensorIfEC2EPKim,comdat
	.weak	_ZN6TensorIfEC2EPKim    # -- Begin function _ZN6TensorIfEC2EPKim
	.p2align	4, 0x90
	.type	_ZN6TensorIfEC2EPKim,@function
_ZN6TensorIfEC2EPKim:                   # @_ZN6TensorIfEC2EPKim
.Lfunc_begin12:
	.cfi_startproc
	.cfi_personality 3, __gxx_personality_v0
	.cfi_lsda 3, .Lexception12
# %bb.0:                                # %entry
	pushq	%rbp
	.cfi_def_cfa_offset 16
	.cfi_offset %rbp, -16
	movq	%rsp, %rbp
	.cfi_def_cfa_register %rbp
	subq	$192, %rsp
	movq	%rdi, -8(%rbp)
	movq	%rsi, -16(%rbp)
	movq	%rdx, -24(%rbp)
	movq	-8(%rbp), %rdx
	movq	%rdx, %rsi
	movq	%rdx, %rdi
	movq	%rdx, -96(%rbp)         # 8-byte Spill
	movq	%rsi, -104(%rbp)        # 8-byte Spill
	callq	_ZNSt6vectorIfSaIfEEC2Ev
	movq	-96(%rbp), %rdx         # 8-byte Reload
	addq	$24, %rdx
	movq	-24(%rbp), %rsi
	leaq	-32(%rbp), %rdi
	movq	%rdi, -112(%rbp)        # 8-byte Spill
	movq	%rdx, -120(%rbp)        # 8-byte Spill
	movq	%rsi, -128(%rbp)        # 8-byte Spill
	callq	_ZNSaIiEC2Ev
.Ltmp245:
	movq	-120(%rbp), %rdi        # 8-byte Reload
	movq	-128(%rbp), %rsi        # 8-byte Reload
	movq	-112(%rbp), %rdx        # 8-byte Reload
	callq	_ZNSt6vectorIiSaIiEEC2EmRKS0_
.Ltmp246:
	jmp	.LBB139_1
.LBB139_1:                              # %invoke.cont
	leaq	-32(%rbp), %rdi
	callq	_ZNSaIiED2Ev
	movq	-104(%rbp), %rdi        # 8-byte Reload
	addq	$48, %rdi
	movq	-24(%rbp), %rsi
	leaq	-48(%rbp), %rax
	movq	%rdi, -136(%rbp)        # 8-byte Spill
	movq	%rax, %rdi
	movq	%rax, -144(%rbp)        # 8-byte Spill
	movq	%rsi, -152(%rbp)        # 8-byte Spill
	callq	_ZNSaIiEC2Ev
.Ltmp248:
	movq	-136(%rbp), %rdi        # 8-byte Reload
	movq	-152(%rbp), %rsi        # 8-byte Reload
	movq	-144(%rbp), %rdx        # 8-byte Reload
	callq	_ZNSt6vectorIiSaIiEEC2EmRKS0_
.Ltmp249:
	jmp	.LBB139_2
.LBB139_2:                              # %invoke.cont5
	leaq	-48(%rbp), %rdi
	callq	_ZNSaIiED2Ev
	movq	-24(%rbp), %rdi
	movq	-104(%rbp), %rax        # 8-byte Reload
	movq	%rdi, 72(%rax)
	movq	-16(%rbp), %rsi
.Ltmp251:
	movq	%rax, %rdi
	callq	_ZN6TensorIfE21copy_dims_get_stridesEPKi
.Ltmp252:
	movl	%eax, -156(%rbp)        # 4-byte Spill
	jmp	.LBB139_3
.LBB139_3:                              # %invoke.cont7
	movl	-156(%rbp), %eax        # 4-byte Reload
	movl	%eax, -52(%rbp)
	movslq	-52(%rbp), %rsi
	movl	$0, -84(%rbp)
	leaq	-88(%rbp), %rcx
	movq	%rcx, %rdi
	movq	%rsi, -168(%rbp)        # 8-byte Spill
	movq	%rcx, -176(%rbp)        # 8-byte Spill
	callq	_ZNSaIfEC2Ev
.Ltmp254:
	leaq	-80(%rbp), %rdi
	leaq	-84(%rbp), %rdx
	movq	-168(%rbp), %rsi        # 8-byte Reload
	movq	-176(%rbp), %rcx        # 8-byte Reload
	callq	_ZNSt6vectorIfSaIfEEC2EmRKfRKS0_
.Ltmp255:
	jmp	.LBB139_4
.LBB139_4:                              # %invoke.cont12
	movq	-104(%rbp), %rdi        # 8-byte Reload
	leaq	-80(%rbp), %rsi
	callq	_ZNSt6vectorIfSaIfEEaSEOS1_
	leaq	-80(%rbp), %rdi
	movq	%rax, -184(%rbp)        # 8-byte Spill
	callq	_ZNSt6vectorIfSaIfEED2Ev
	leaq	-88(%rbp), %rdi
	callq	_ZNSaIfED2Ev
	addq	$192, %rsp
	popq	%rbp
	.cfi_def_cfa %rsp, 8
	retq
.LBB139_5:                              # %lpad
	.cfi_def_cfa %rbp, 16
.Ltmp247:
	movl	%edx, %ecx
	movq	%rax, -40(%rbp)
	movl	%ecx, -44(%rbp)
	leaq	-32(%rbp), %rdi
	callq	_ZNSaIiED2Ev
	jmp	.LBB139_11
.LBB139_6:                              # %lpad4
.Ltmp250:
	movl	%edx, %ecx
	movq	%rax, -40(%rbp)
	movl	%ecx, -44(%rbp)
	leaq	-48(%rbp), %rdi
	callq	_ZNSaIiED2Ev
	jmp	.LBB139_10
.LBB139_7:                              # %lpad6
.Ltmp253:
	movl	%edx, %ecx
	movq	%rax, -40(%rbp)
	movl	%ecx, -44(%rbp)
	jmp	.LBB139_9
.LBB139_8:                              # %lpad11
.Ltmp256:
	movl	%edx, %ecx
	movq	%rax, -40(%rbp)
	movl	%ecx, -44(%rbp)
	leaq	-88(%rbp), %rdi
	callq	_ZNSaIfED2Ev
.LBB139_9:                              # %ehcleanup
	movq	-136(%rbp), %rdi        # 8-byte Reload
	callq	_ZNSt6vectorIiSaIiEED2Ev
.LBB139_10:                             # %ehcleanup15
	movq	-120(%rbp), %rdi        # 8-byte Reload
	callq	_ZNSt6vectorIiSaIiEED2Ev
.LBB139_11:                             # %ehcleanup16
	movq	-96(%rbp), %rdi         # 8-byte Reload
	callq	_ZNSt6vectorIfSaIfEED2Ev
# %bb.12:                               # %eh.resume
	movq	-40(%rbp), %rdi
	callq	_Unwind_Resume
.Lfunc_end139:
	.size	_ZN6TensorIfEC2EPKim, .Lfunc_end139-_ZN6TensorIfEC2EPKim
	.cfi_endproc
	.section	.gcc_except_table,"a",@progbits
	.p2align	2
GCC_except_table139:
.Lexception12:
	.byte	255                     # @LPStart Encoding = omit
	.byte	255                     # @TType Encoding = omit
	.byte	1                       # Call site Encoding = uleb128
	.uleb128 .Lcst_end12-.Lcst_begin12
.Lcst_begin12:
	.uleb128 .Ltmp245-.Lfunc_begin12 # >> Call Site 1 <<
	.uleb128 .Ltmp246-.Ltmp245      #   Call between .Ltmp245 and .Ltmp246
	.uleb128 .Ltmp247-.Lfunc_begin12 #     jumps to .Ltmp247
	.byte	0                       #   On action: cleanup
	.uleb128 .Ltmp248-.Lfunc_begin12 # >> Call Site 2 <<
	.uleb128 .Ltmp249-.Ltmp248      #   Call between .Ltmp248 and .Ltmp249
	.uleb128 .Ltmp250-.Lfunc_begin12 #     jumps to .Ltmp250
	.byte	0                       #   On action: cleanup
	.uleb128 .Ltmp251-.Lfunc_begin12 # >> Call Site 3 <<
	.uleb128 .Ltmp252-.Ltmp251      #   Call between .Ltmp251 and .Ltmp252
	.uleb128 .Ltmp253-.Lfunc_begin12 #     jumps to .Ltmp253
	.byte	0                       #   On action: cleanup
	.uleb128 .Ltmp254-.Lfunc_begin12 # >> Call Site 4 <<
	.uleb128 .Ltmp255-.Ltmp254      #   Call between .Ltmp254 and .Ltmp255
	.uleb128 .Ltmp256-.Lfunc_begin12 #     jumps to .Ltmp256
	.byte	0                       #   On action: cleanup
	.uleb128 .Ltmp255-.Lfunc_begin12 # >> Call Site 5 <<
	.uleb128 .Lfunc_end139-.Ltmp255 #   Call between .Ltmp255 and .Lfunc_end139
	.byte	0                       #     has no landing pad
	.byte	0                       #   On action: cleanup
.Lcst_end12:
	.p2align	2
                                        # -- End function
	.section	.text._ZNKSt6vectorIiSaIiEE11_M_data_ptrIiEEPT_S4_,"axG",@progbits,_ZNKSt6vectorIiSaIiEE11_M_data_ptrIiEEPT_S4_,comdat
	.weak	_ZNKSt6vectorIiSaIiEE11_M_data_ptrIiEEPT_S4_ # -- Begin function _ZNKSt6vectorIiSaIiEE11_M_data_ptrIiEEPT_S4_
	.p2align	4, 0x90
	.type	_ZNKSt6vectorIiSaIiEE11_M_data_ptrIiEEPT_S4_,@function
_ZNKSt6vectorIiSaIiEE11_M_data_ptrIiEEPT_S4_: # @_ZNKSt6vectorIiSaIiEE11_M_data_ptrIiEEPT_S4_
	.cfi_startproc
# %bb.0:                                # %entry
	pushq	%rbp
	.cfi_def_cfa_offset 16
	.cfi_offset %rbp, -16
	movq	%rsp, %rbp
	.cfi_def_cfa_register %rbp
	movq	%rdi, -8(%rbp)
	movq	%rsi, -16(%rbp)
	movq	-16(%rbp), %rax
	popq	%rbp
	.cfi_def_cfa %rsp, 8
	retq
.Lfunc_end140:
	.size	_ZNKSt6vectorIiSaIiEE11_M_data_ptrIiEEPT_S4_, .Lfunc_end140-_ZNKSt6vectorIiSaIiEE11_M_data_ptrIiEEPT_S4_
	.cfi_endproc
                                        # -- End function
	.section	.text._ZNSt6vectorIfSaIfEEC2Ev,"axG",@progbits,_ZNSt6vectorIfSaIfEEC2Ev,comdat
	.weak	_ZNSt6vectorIfSaIfEEC2Ev # -- Begin function _ZNSt6vectorIfSaIfEEC2Ev
	.p2align	4, 0x90
	.type	_ZNSt6vectorIfSaIfEEC2Ev,@function
_ZNSt6vectorIfSaIfEEC2Ev:               # @_ZNSt6vectorIfSaIfEEC2Ev
.Lfunc_begin13:
	.cfi_startproc
	.cfi_personality 3, __gxx_personality_v0
	.cfi_lsda 3, .Lexception13
# %bb.0:                                # %entry
	pushq	%rbp
	.cfi_def_cfa_offset 16
	.cfi_offset %rbp, -16
	movq	%rsp, %rbp
	.cfi_def_cfa_register %rbp
	subq	$16, %rsp
	movq	%rdi, -8(%rbp)
	movq	-8(%rbp), %rdi
.Ltmp257:
	callq	_ZNSt12_Vector_baseIfSaIfEEC2Ev
.Ltmp258:
	jmp	.LBB141_1
.LBB141_1:                              # %invoke.cont
	addq	$16, %rsp
	popq	%rbp
	.cfi_def_cfa %rsp, 8
	retq
.LBB141_2:                              # %terminate.lpad
	.cfi_def_cfa %rbp, 16
.Ltmp259:
	movl	%edx, %ecx
	movq	%rax, %rdi
	movl	%ecx, -12(%rbp)         # 4-byte Spill
	callq	__clang_call_terminate
.Lfunc_end141:
	.size	_ZNSt6vectorIfSaIfEEC2Ev, .Lfunc_end141-_ZNSt6vectorIfSaIfEEC2Ev
	.cfi_endproc
	.section	.gcc_except_table,"a",@progbits
	.p2align	2
GCC_except_table141:
.Lexception13:
	.byte	255                     # @LPStart Encoding = omit
	.byte	3                       # @TType Encoding = udata4
	.uleb128 .Lttbase7-.Lttbaseref7
.Lttbaseref7:
	.byte	1                       # Call site Encoding = uleb128
	.uleb128 .Lcst_end13-.Lcst_begin13
.Lcst_begin13:
	.uleb128 .Ltmp257-.Lfunc_begin13 # >> Call Site 1 <<
	.uleb128 .Ltmp258-.Ltmp257      #   Call between .Ltmp257 and .Ltmp258
	.uleb128 .Ltmp259-.Lfunc_begin13 #     jumps to .Ltmp259
	.byte	1                       #   On action: 1
.Lcst_end13:
	.byte	1                       # >> Action Record 1 <<
                                        #   Catch TypeInfo 1
	.byte	0                       #   No further actions
	.p2align	2
                                        # >> Catch TypeInfos <<
	.long	0                       # TypeInfo 1
.Lttbase7:
	.p2align	2
                                        # -- End function
	.section	.text._ZNSt6vectorIiSaIiEEC2EmRKS0_,"axG",@progbits,_ZNSt6vectorIiSaIiEEC2EmRKS0_,comdat
	.weak	_ZNSt6vectorIiSaIiEEC2EmRKS0_ # -- Begin function _ZNSt6vectorIiSaIiEEC2EmRKS0_
	.p2align	4, 0x90
	.type	_ZNSt6vectorIiSaIiEEC2EmRKS0_,@function
_ZNSt6vectorIiSaIiEEC2EmRKS0_:          # @_ZNSt6vectorIiSaIiEEC2EmRKS0_
.Lfunc_begin14:
	.cfi_startproc
	.cfi_personality 3, __gxx_personality_v0
	.cfi_lsda 3, .Lexception14
# %bb.0:                                # %entry
	pushq	%rbp
	.cfi_def_cfa_offset 16
	.cfi_offset %rbp, -16
	movq	%rsp, %rbp
	.cfi_def_cfa_register %rbp
	subq	$64, %rsp
	movq	%rdi, -8(%rbp)
	movq	%rsi, -16(%rbp)
	movq	%rdx, -24(%rbp)
	movq	-8(%rbp), %rdx
	movq	-16(%rbp), %rsi
	movq	-24(%rbp), %rdi
	movq	%rdi, -48(%rbp)         # 8-byte Spill
	movq	%rdx, %rdi
	movq	-48(%rbp), %rax         # 8-byte Reload
	movq	%rdx, -56(%rbp)         # 8-byte Spill
	movq	%rax, %rdx
	callq	_ZNSt12_Vector_baseIiSaIiEEC2EmRKS0_
	movq	-16(%rbp), %rsi
.Ltmp260:
	movq	-56(%rbp), %rdi         # 8-byte Reload
	callq	_ZNSt6vectorIiSaIiEE21_M_default_initializeEm
.Ltmp261:
	jmp	.LBB142_1
.LBB142_1:                              # %invoke.cont
	addq	$64, %rsp
	popq	%rbp
	.cfi_def_cfa %rsp, 8
	retq
.LBB142_2:                              # %lpad
	.cfi_def_cfa %rbp, 16
.Ltmp262:
	movl	%edx, %ecx
	movq	%rax, -32(%rbp)
	movl	%ecx, -36(%rbp)
	movq	-56(%rbp), %rax         # 8-byte Reload
	movq	%rax, %rdi
	callq	_ZNSt12_Vector_baseIiSaIiEED2Ev
# %bb.3:                                # %eh.resume
	movq	-32(%rbp), %rdi
	callq	_Unwind_Resume
.Lfunc_end142:
	.size	_ZNSt6vectorIiSaIiEEC2EmRKS0_, .Lfunc_end142-_ZNSt6vectorIiSaIiEEC2EmRKS0_
	.cfi_endproc
	.section	.gcc_except_table,"a",@progbits
	.p2align	2
GCC_except_table142:
.Lexception14:
	.byte	255                     # @LPStart Encoding = omit
	.byte	255                     # @TType Encoding = omit
	.byte	1                       # Call site Encoding = uleb128
	.uleb128 .Lcst_end14-.Lcst_begin14
.Lcst_begin14:
	.uleb128 .Lfunc_begin14-.Lfunc_begin14 # >> Call Site 1 <<
	.uleb128 .Ltmp260-.Lfunc_begin14 #   Call between .Lfunc_begin14 and .Ltmp260
	.byte	0                       #     has no landing pad
	.byte	0                       #   On action: cleanup
	.uleb128 .Ltmp260-.Lfunc_begin14 # >> Call Site 2 <<
	.uleb128 .Ltmp261-.Ltmp260      #   Call between .Ltmp260 and .Ltmp261
	.uleb128 .Ltmp262-.Lfunc_begin14 #     jumps to .Ltmp262
	.byte	0                       #   On action: cleanup
	.uleb128 .Ltmp261-.Lfunc_begin14 # >> Call Site 3 <<
	.uleb128 .Lfunc_end142-.Ltmp261 #   Call between .Ltmp261 and .Lfunc_end142
	.byte	0                       #     has no landing pad
	.byte	0                       #   On action: cleanup
.Lcst_end14:
	.p2align	2
                                        # -- End function
	.section	.text._ZN6TensorIfE21copy_dims_get_stridesEPKi,"axG",@progbits,_ZN6TensorIfE21copy_dims_get_stridesEPKi,comdat
	.weak	_ZN6TensorIfE21copy_dims_get_stridesEPKi # -- Begin function _ZN6TensorIfE21copy_dims_get_stridesEPKi
	.p2align	4, 0x90
	.type	_ZN6TensorIfE21copy_dims_get_stridesEPKi,@function
_ZN6TensorIfE21copy_dims_get_stridesEPKi: # @_ZN6TensorIfE21copy_dims_get_stridesEPKi
	.cfi_startproc
# %bb.0:                                # %entry
	pushq	%rbp
	.cfi_def_cfa_offset 16
	.cfi_offset %rbp, -16
	movq	%rsp, %rbp
	.cfi_def_cfa_register %rbp
	subq	$48, %rsp
	movq	%rdi, -8(%rbp)
	movq	%rsi, -16(%rbp)
	movq	-8(%rbp), %rsi
	movl	$1, -20(%rbp)
	movq	72(%rsi), %rdi
	subq	$1, %rdi
	movl	%edi, %eax
	movl	%eax, -24(%rbp)
	movq	%rsi, -32(%rbp)         # 8-byte Spill
.LBB143_1:                              # %for.cond
                                        # =>This Inner Loop Header: Depth=1
	cmpl	$0, -24(%rbp)
	jl	.LBB143_4
# %bb.2:                                # %for.body
                                        #   in Loop: Header=BB143_1 Depth=1
	movq	-16(%rbp), %rax
	movslq	-24(%rbp), %rcx
	movl	(%rax,%rcx,4), %edx
	movq	-32(%rbp), %rax         # 8-byte Reload
	addq	$24, %rax
	movslq	-24(%rbp), %rsi
	movq	%rax, %rdi
	movl	%edx, -36(%rbp)         # 4-byte Spill
	callq	_ZNSt6vectorIiSaIiEEixEm
	movl	-36(%rbp), %edx         # 4-byte Reload
	movl	%edx, (%rax)
	movl	-20(%rbp), %edx
	movq	-32(%rbp), %rax         # 8-byte Reload
	addq	$48, %rax
	movslq	-24(%rbp), %rsi
	movq	%rax, %rdi
	movl	%edx, -40(%rbp)         # 4-byte Spill
	callq	_ZNSt6vectorIiSaIiEEixEm
	movl	-40(%rbp), %edx         # 4-byte Reload
	movl	%edx, (%rax)
	movq	-16(%rbp), %rax
	movslq	-24(%rbp), %rcx
	movl	(%rax,%rcx,4), %edx
	imull	-20(%rbp), %edx
	movl	%edx, -20(%rbp)
# %bb.3:                                # %for.inc
